	.file	"main.cpp"
	.text
	.section	.text._ZNKSt5ctypeIcE8do_widenEc,"axG",@progbits,_ZNKSt5ctypeIcE8do_widenEc,comdat
	.align 2
	.p2align 4
	.weak	_ZNKSt5ctypeIcE8do_widenEc
	.type	_ZNKSt5ctypeIcE8do_widenEc, @function
_ZNKSt5ctypeIcE8do_widenEc:
.LFB1347:
	.cfi_startproc
	endbr64
	movl	%esi, %eax
	ret
	.cfi_endproc
.LFE1347:
	.size	_ZNKSt5ctypeIcE8do_widenEc, .-_ZNKSt5ctypeIcE8do_widenEc
	.section	.text._ZN3MPI8DatatypeD2Ev,"axG",@progbits,_ZN3MPI8DatatypeD5Ev,comdat
	.align 2
	.p2align 4
	.weak	_ZN3MPI8DatatypeD2Ev
	.type	_ZN3MPI8DatatypeD2Ev, @function
_ZN3MPI8DatatypeD2Ev:
.LFB4546:
	.cfi_startproc
	endbr64
	ret
	.cfi_endproc
.LFE4546:
	.size	_ZN3MPI8DatatypeD2Ev, .-_ZN3MPI8DatatypeD2Ev
	.weak	_ZN3MPI8DatatypeD1Ev
	.set	_ZN3MPI8DatatypeD1Ev,_ZN3MPI8DatatypeD2Ev
	.section	.text._ZN3MPI6StatusD2Ev,"axG",@progbits,_ZN3MPI6StatusD5Ev,comdat
	.align 2
	.p2align 4
	.weak	_ZN3MPI6StatusD2Ev
	.type	_ZN3MPI6StatusD2Ev, @function
_ZN3MPI6StatusD2Ev:
.LFB4582:
	.cfi_startproc
	endbr64
	ret
	.cfi_endproc
.LFE4582:
	.size	_ZN3MPI6StatusD2Ev, .-_ZN3MPI6StatusD2Ev
	.weak	_ZN3MPI6StatusD1Ev
	.set	_ZN3MPI6StatusD1Ev,_ZN3MPI6StatusD2Ev
	.section	.text._ZN3MPI7RequestD2Ev,"axG",@progbits,_ZN3MPI7RequestD5Ev,comdat
	.align 2
	.p2align 4
	.weak	_ZN3MPI7RequestD2Ev
	.type	_ZN3MPI7RequestD2Ev, @function
_ZN3MPI7RequestD2Ev:
.LFB4592:
	.cfi_startproc
	endbr64
	ret
	.cfi_endproc
.LFE4592:
	.size	_ZN3MPI7RequestD2Ev, .-_ZN3MPI7RequestD2Ev
	.weak	_ZN3MPI7RequestD1Ev
	.set	_ZN3MPI7RequestD1Ev,_ZN3MPI7RequestD2Ev
	.section	.text._ZN3MPI8PrequestD2Ev,"axG",@progbits,_ZN3MPI8PrequestD5Ev,comdat
	.align 2
	.p2align 4
	.weak	_ZN3MPI8PrequestD2Ev
	.type	_ZN3MPI8PrequestD2Ev, @function
_ZN3MPI8PrequestD2Ev:
.LFB4616:
	.cfi_startproc
	endbr64
	ret
	.cfi_endproc
.LFE4616:
	.size	_ZN3MPI8PrequestD2Ev, .-_ZN3MPI8PrequestD2Ev
	.weak	_ZN3MPI8PrequestD1Ev
	.set	_ZN3MPI8PrequestD1Ev,_ZN3MPI8PrequestD2Ev
	.section	.text._ZN3MPI8GrequestD2Ev,"axG",@progbits,_ZN3MPI8GrequestD5Ev,comdat
	.align 2
	.p2align 4
	.weak	_ZN3MPI8GrequestD2Ev
	.type	_ZN3MPI8GrequestD2Ev, @function
_ZN3MPI8GrequestD2Ev:
.LFB4631:
	.cfi_startproc
	endbr64
	ret
	.cfi_endproc
.LFE4631:
	.size	_ZN3MPI8GrequestD2Ev, .-_ZN3MPI8GrequestD2Ev
	.weak	_ZN3MPI8GrequestD1Ev
	.set	_ZN3MPI8GrequestD1Ev,_ZN3MPI8GrequestD2Ev
	.section	.text._ZN3MPI5GroupD2Ev,"axG",@progbits,_ZN3MPI5GroupD5Ev,comdat
	.align 2
	.p2align 4
	.weak	_ZN3MPI5GroupD2Ev
	.type	_ZN3MPI5GroupD2Ev, @function
_ZN3MPI5GroupD2Ev:
.LFB4646:
	.cfi_startproc
	endbr64
	ret
	.cfi_endproc
.LFE4646:
	.size	_ZN3MPI5GroupD2Ev, .-_ZN3MPI5GroupD2Ev
	.weak	_ZN3MPI5GroupD1Ev
	.set	_ZN3MPI5GroupD1Ev,_ZN3MPI5GroupD2Ev
	.section	.text._ZN3MPI3WinD2Ev,"axG",@progbits,_ZN3MPI3WinD5Ev,comdat
	.align 2
	.p2align 4
	.weak	_ZN3MPI3WinD2Ev
	.type	_ZN3MPI3WinD2Ev, @function
_ZN3MPI3WinD2Ev:
.LFB4687:
	.cfi_startproc
	endbr64
	ret
	.cfi_endproc
.LFE4687:
	.size	_ZN3MPI3WinD2Ev, .-_ZN3MPI3WinD2Ev
	.weak	_ZN3MPI3WinD1Ev
	.set	_ZN3MPI3WinD1Ev,_ZN3MPI3WinD2Ev
	.section	.text._ZN3MPI10ErrhandlerD2Ev,"axG",@progbits,_ZN3MPI10ErrhandlerD5Ev,comdat
	.align 2
	.p2align 4
	.weak	_ZN3MPI10ErrhandlerD2Ev
	.type	_ZN3MPI10ErrhandlerD2Ev, @function
_ZN3MPI10ErrhandlerD2Ev:
.LFB4713:
	.cfi_startproc
	endbr64
	ret
	.cfi_endproc
.LFE4713:
	.size	_ZN3MPI10ErrhandlerD2Ev, .-_ZN3MPI10ErrhandlerD2Ev
	.weak	_ZN3MPI10ErrhandlerD1Ev
	.set	_ZN3MPI10ErrhandlerD1Ev,_ZN3MPI10ErrhandlerD2Ev
	.section	.text._ZN3MPI9IntracommD2Ev,"axG",@progbits,_ZN3MPI9IntracommD5Ev,comdat
	.align 2
	.p2align 4
	.weak	_ZN3MPI9IntracommD2Ev
	.type	_ZN3MPI9IntracommD2Ev, @function
_ZN3MPI9IntracommD2Ev:
.LFB4745:
	.cfi_startproc
	endbr64
	ret
	.cfi_endproc
.LFE4745:
	.size	_ZN3MPI9IntracommD2Ev, .-_ZN3MPI9IntracommD2Ev
	.weak	_ZN3MPI9IntracommD1Ev
	.set	_ZN3MPI9IntracommD1Ev,_ZN3MPI9IntracommD2Ev
	.section	.text._ZN3MPI4InfoD2Ev,"axG",@progbits,_ZN3MPI4InfoD5Ev,comdat
	.align 2
	.p2align 4
	.weak	_ZN3MPI4InfoD2Ev
	.type	_ZN3MPI4InfoD2Ev, @function
_ZN3MPI4InfoD2Ev:
.LFB4796:
	.cfi_startproc
	endbr64
	ret
	.cfi_endproc
.LFE4796:
	.size	_ZN3MPI4InfoD2Ev, .-_ZN3MPI4InfoD2Ev
	.weak	_ZN3MPI4InfoD1Ev
	.set	_ZN3MPI4InfoD1Ev,_ZN3MPI4InfoD2Ev
	.section	.text._ZN3MPI2OpD2Ev,"axG",@progbits,_ZN3MPI2OpD5Ev,comdat
	.align 2
	.p2align 4
	.weak	_ZN3MPI2OpD2Ev
	.type	_ZN3MPI2OpD2Ev, @function
_ZN3MPI2OpD2Ev:
.LFB5035:
	.cfi_startproc
	endbr64
	ret
	.cfi_endproc
.LFE5035:
	.size	_ZN3MPI2OpD2Ev, .-_ZN3MPI2OpD2Ev
	.weak	_ZN3MPI2OpD1Ev
	.set	_ZN3MPI2OpD1Ev,_ZN3MPI2OpD2Ev
	.section	.text._ZNK3MPI6Status10Get_sourceEv,"axG",@progbits,_ZNK3MPI6Status10Get_sourceEv,comdat
	.align 2
	.p2align 4
	.weak	_ZNK3MPI6Status10Get_sourceEv
	.type	_ZNK3MPI6Status10Get_sourceEv, @function
_ZNK3MPI6Status10Get_sourceEv:
.LFB5051:
	.cfi_startproc
	endbr64
	movl	8(%rdi), %eax
	ret
	.cfi_endproc
.LFE5051:
	.size	_ZNK3MPI6Status10Get_sourceEv, .-_ZNK3MPI6Status10Get_sourceEv
	.section	.text._ZN3MPI6Status10Set_sourceEi,"axG",@progbits,_ZN3MPI6Status10Set_sourceEi,comdat
	.align 2
	.p2align 4
	.weak	_ZN3MPI6Status10Set_sourceEi
	.type	_ZN3MPI6Status10Set_sourceEi, @function
_ZN3MPI6Status10Set_sourceEi:
.LFB5052:
	.cfi_startproc
	endbr64
	movl	%esi, 8(%rdi)
	ret
	.cfi_endproc
.LFE5052:
	.size	_ZN3MPI6Status10Set_sourceEi, .-_ZN3MPI6Status10Set_sourceEi
	.section	.text._ZNK3MPI6Status7Get_tagEv,"axG",@progbits,_ZNK3MPI6Status7Get_tagEv,comdat
	.align 2
	.p2align 4
	.weak	_ZNK3MPI6Status7Get_tagEv
	.type	_ZNK3MPI6Status7Get_tagEv, @function
_ZNK3MPI6Status7Get_tagEv:
.LFB5053:
	.cfi_startproc
	endbr64
	movl	12(%rdi), %eax
	ret
	.cfi_endproc
.LFE5053:
	.size	_ZNK3MPI6Status7Get_tagEv, .-_ZNK3MPI6Status7Get_tagEv
	.section	.text._ZN3MPI6Status7Set_tagEi,"axG",@progbits,_ZN3MPI6Status7Set_tagEi,comdat
	.align 2
	.p2align 4
	.weak	_ZN3MPI6Status7Set_tagEi
	.type	_ZN3MPI6Status7Set_tagEi, @function
_ZN3MPI6Status7Set_tagEi:
.LFB5054:
	.cfi_startproc
	endbr64
	movl	%esi, 12(%rdi)
	ret
	.cfi_endproc
.LFE5054:
	.size	_ZN3MPI6Status7Set_tagEi, .-_ZN3MPI6Status7Set_tagEi
	.section	.text._ZNK3MPI6Status9Get_errorEv,"axG",@progbits,_ZNK3MPI6Status9Get_errorEv,comdat
	.align 2
	.p2align 4
	.weak	_ZNK3MPI6Status9Get_errorEv
	.type	_ZNK3MPI6Status9Get_errorEv, @function
_ZNK3MPI6Status9Get_errorEv:
.LFB5055:
	.cfi_startproc
	endbr64
	movl	16(%rdi), %eax
	ret
	.cfi_endproc
.LFE5055:
	.size	_ZNK3MPI6Status9Get_errorEv, .-_ZNK3MPI6Status9Get_errorEv
	.section	.text._ZN3MPI6Status9Set_errorEi,"axG",@progbits,_ZN3MPI6Status9Set_errorEi,comdat
	.align 2
	.p2align 4
	.weak	_ZN3MPI6Status9Set_errorEi
	.type	_ZN3MPI6Status9Set_errorEi, @function
_ZN3MPI6Status9Set_errorEi:
.LFB5056:
	.cfi_startproc
	endbr64
	movl	%esi, 16(%rdi)
	ret
	.cfi_endproc
.LFE5056:
	.size	_ZN3MPI6Status9Set_errorEi, .-_ZN3MPI6Status9Set_errorEi
	.section	.text._ZN17ParticleSimulator4CommD2Ev,"axG",@progbits,_ZN17ParticleSimulator4CommD5Ev,comdat
	.align 2
	.p2align 4
	.weak	_ZN17ParticleSimulator4CommD2Ev
	.type	_ZN17ParticleSimulator4CommD2Ev, @function
_ZN17ParticleSimulator4CommD2Ev:
.LFB6001:
	.cfi_startproc
	endbr64
	ret
	.cfi_endproc
.LFE6001:
	.size	_ZN17ParticleSimulator4CommD2Ev, .-_ZN17ParticleSimulator4CommD2Ev
	.weak	_ZN17ParticleSimulator4CommD1Ev
	.set	_ZN17ParticleSimulator4CommD1Ev,_ZN17ParticleSimulator4CommD2Ev
	.section	.text._ZN17ParticleSimulator2MTD2Ev,"axG",@progbits,_ZN17ParticleSimulator2MTD5Ev,comdat
	.align 2
	.p2align 4
	.weak	_ZN17ParticleSimulator2MTD2Ev
	.type	_ZN17ParticleSimulator2MTD2Ev, @function
_ZN17ParticleSimulator2MTD2Ev:
.LFB6260:
	.cfi_startproc
	endbr64
	ret
	.cfi_endproc
.LFE6260:
	.size	_ZN17ParticleSimulator2MTD2Ev, .-_ZN17ParticleSimulator2MTD2Ev
	.weak	_ZN17ParticleSimulator2MTD1Ev
	.set	_ZN17ParticleSimulator2MTD1Ev,_ZN17ParticleSimulator2MTD2Ev
	.section	.text._ZN3MPI9IntercommD2Ev,"axG",@progbits,_ZN3MPI9IntercommD5Ev,comdat
	.align 2
	.p2align 4
	.weak	_ZN3MPI9IntercommD2Ev
	.type	_ZN3MPI9IntercommD2Ev, @function
_ZN3MPI9IntercommD2Ev:
.LFB15785:
	.cfi_startproc
	endbr64
	ret
	.cfi_endproc
.LFE15785:
	.size	_ZN3MPI9IntercommD2Ev, .-_ZN3MPI9IntercommD2Ev
	.weak	_ZN3MPI9IntercommD1Ev
	.set	_ZN3MPI9IntercommD1Ev,_ZN3MPI9IntercommD2Ev
	.section	.text._ZN3MPI9GraphcommD2Ev,"axG",@progbits,_ZN3MPI9GraphcommD5Ev,comdat
	.align 2
	.p2align 4
	.weak	_ZN3MPI9GraphcommD2Ev
	.type	_ZN3MPI9GraphcommD2Ev, @function
_ZN3MPI9GraphcommD2Ev:
.LFB15789:
	.cfi_startproc
	endbr64
	ret
	.cfi_endproc
.LFE15789:
	.size	_ZN3MPI9GraphcommD2Ev, .-_ZN3MPI9GraphcommD2Ev
	.weak	_ZN3MPI9GraphcommD1Ev
	.set	_ZN3MPI9GraphcommD1Ev,_ZN3MPI9GraphcommD2Ev
	.section	.text._ZN3MPI8CartcommD2Ev,"axG",@progbits,_ZN3MPI8CartcommD5Ev,comdat
	.align 2
	.p2align 4
	.weak	_ZN3MPI8CartcommD2Ev
	.type	_ZN3MPI8CartcommD2Ev, @function
_ZN3MPI8CartcommD2Ev:
.LFB15793:
	.cfi_startproc
	endbr64
	ret
	.cfi_endproc
.LFE15793:
	.size	_ZN3MPI8CartcommD2Ev, .-_ZN3MPI8CartcommD2Ev
	.weak	_ZN3MPI8CartcommD1Ev
	.set	_ZN3MPI8CartcommD1Ev,_ZN3MPI8CartcommD2Ev
	.section	.text._ZNK3MPI4Comm9AllreduceEPKvPviRKNS_8DatatypeERKNS_2OpE,"axG",@progbits,_ZNK3MPI4Comm9AllreduceEPKvPviRKNS_8DatatypeERKNS_2OpE,comdat
	.align 2
	.p2align 4
	.weak	_ZNK3MPI4Comm9AllreduceEPKvPviRKNS_8DatatypeERKNS_2OpE
	.type	_ZNK3MPI4Comm9AllreduceEPKvPviRKNS_8DatatypeERKNS_2OpE, @function
_ZNK3MPI4Comm9AllreduceEPKvPviRKNS_8DatatypeERKNS_2OpE:
.LFB4942:
	.cfi_startproc
	endbr64
	movq	%rdi, %r10
	movq	%r9, %rax
	movq	%rsi, %rdi
	movq	%rdx, %rsi
	movq	8(%r10), %r9
	movl	%ecx, %edx
	movq	8(%r8), %rcx
	movq	8(%rax), %r8
	jmp	MPI_Allreduce@PLT
	.cfi_endproc
.LFE4942:
	.size	_ZNK3MPI4Comm9AllreduceEPKvPviRKNS_8DatatypeERKNS_2OpE, .-_ZNK3MPI4Comm9AllreduceEPKvPviRKNS_8DatatypeERKNS_2OpE
	.section	.text._ZNK3MPI4Comm8Get_rankEv,"axG",@progbits,_ZNK3MPI4Comm8Get_rankEv,comdat
	.align 2
	.p2align 4
	.weak	_ZNK3MPI4Comm8Get_rankEv
	.type	_ZNK3MPI4Comm8Get_rankEv, @function
_ZNK3MPI4Comm8Get_rankEv:
.LFB4926:
	.cfi_startproc
	endbr64
	subq	$24, %rsp
	.cfi_def_cfa_offset 32
	movq	8(%rdi), %rdi
	movq	%fs:40, %rax
	movq	%rax, 8(%rsp)
	xorl	%eax, %eax
	leaq	4(%rsp), %rsi
	call	MPI_Comm_rank@PLT
	movl	4(%rsp), %eax
	movq	8(%rsp), %rdx
	xorq	%fs:40, %rdx
	jne	.L30
	addq	$24, %rsp
	.cfi_remember_state
	.cfi_def_cfa_offset 8
	ret
.L30:
	.cfi_restore_state
	call	__stack_chk_fail@PLT
	.cfi_endproc
.LFE4926:
	.size	_ZNK3MPI4Comm8Get_rankEv, .-_ZNK3MPI4Comm8Get_rankEv
	.section	.text._ZNK3MPI4Comm8Get_sizeEv,"axG",@progbits,_ZNK3MPI4Comm8Get_sizeEv,comdat
	.align 2
	.p2align 4
	.weak	_ZNK3MPI4Comm8Get_sizeEv
	.type	_ZNK3MPI4Comm8Get_sizeEv, @function
_ZNK3MPI4Comm8Get_sizeEv:
.LFB4925:
	.cfi_startproc
	endbr64
	subq	$24, %rsp
	.cfi_def_cfa_offset 32
	movq	8(%rdi), %rdi
	movq	%fs:40, %rax
	movq	%rax, 8(%rsp)
	xorl	%eax, %eax
	leaq	4(%rsp), %rsi
	call	MPI_Comm_size@PLT
	movl	4(%rsp), %eax
	movq	8(%rsp), %rdx
	xorq	%fs:40, %rdx
	jne	.L35
	addq	$24, %rsp
	.cfi_remember_state
	.cfi_def_cfa_offset 8
	ret
.L35:
	.cfi_restore_state
	call	__stack_chk_fail@PLT
	.cfi_endproc
.LFE4925:
	.size	_ZNK3MPI4Comm8Get_sizeEv, .-_ZNK3MPI4Comm8Get_sizeEv
	.section	.text._ZNK3MPI9Intercomm5CloneEv,"axG",@progbits,_ZNK3MPI9Intercomm5CloneEv,comdat
	.align 2
	.p2align 4
	.weak	_ZNK3MPI9Intercomm5CloneEv
	.type	_ZNK3MPI9Intercomm5CloneEv, @function
_ZNK3MPI9Intercomm5CloneEv:
.LFB5007:
	.cfi_startproc
	endbr64
	subq	$24, %rsp
	.cfi_def_cfa_offset 32
	movq	8(%rdi), %rdi
	movq	%fs:40, %rax
	movq	%rax, 8(%rsp)
	xorl	%eax, %eax
	movq	%rsp, %rsi
	call	MPI_Comm_dup@PLT
	movl	$16, %edi
	call	_Znwm@PLT
	movq	(%rsp), %rdx
	leaq	16+_ZTVN3MPI9IntercommE(%rip), %rcx
	movq	%rcx, (%rax)
	movq	%rdx, 8(%rax)
	movq	8(%rsp), %rdx
	xorq	%fs:40, %rdx
	jne	.L40
	addq	$24, %rsp
	.cfi_remember_state
	.cfi_def_cfa_offset 8
	ret
.L40:
	.cfi_restore_state
	call	__stack_chk_fail@PLT
	.cfi_endproc
.LFE5007:
	.size	_ZNK3MPI9Intercomm5CloneEv, .-_ZNK3MPI9Intercomm5CloneEv
	.section	.text._ZN17ParticleSimulator10MemoryPoolD2Ev,"axG",@progbits,_ZN17ParticleSimulator10MemoryPoolD5Ev,comdat
	.align 2
	.p2align 4
	.weak	_ZN17ParticleSimulator10MemoryPoolD2Ev
	.type	_ZN17ParticleSimulator10MemoryPoolD2Ev, @function
_ZN17ParticleSimulator10MemoryPoolD2Ev:
.LFB5179:
	.cfi_startproc
	endbr64
	movq	51000040(%rdi), %rdi
	testq	%rdi, %rdi
	je	.L43
	jmp	_ZdlPv@PLT
	.p2align 4,,10
	.p2align 3
.L43:
	ret
	.cfi_endproc
.LFE5179:
	.size	_ZN17ParticleSimulator10MemoryPoolD2Ev, .-_ZN17ParticleSimulator10MemoryPoolD2Ev
	.weak	_ZN17ParticleSimulator10MemoryPoolD1Ev
	.set	_ZN17ParticleSimulator10MemoryPoolD1Ev,_ZN17ParticleSimulator10MemoryPoolD2Ev
	.section	.text._ZNK3MPI4Comm7BarrierEv,"axG",@progbits,_ZNK3MPI4Comm7BarrierEv,comdat
	.align 2
	.p2align 4
	.weak	_ZNK3MPI4Comm7BarrierEv
	.type	_ZNK3MPI4Comm7BarrierEv, @function
_ZNK3MPI4Comm7BarrierEv:
.LFB4930:
	.cfi_startproc
	endbr64
	movq	8(%rdi), %rdi
	jmp	MPI_Barrier@PLT
	.cfi_endproc
.LFE4930:
	.size	_ZNK3MPI4Comm7BarrierEv, .-_ZNK3MPI4Comm7BarrierEv
	.section	.text._ZN3MPI4Comm5AbortEi,"axG",@progbits,_ZN3MPI4Comm5AbortEi,comdat
	.align 2
	.p2align 4
	.weak	_ZN3MPI4Comm5AbortEi
	.type	_ZN3MPI4Comm5AbortEi, @function
_ZN3MPI4Comm5AbortEi:
.LFB4950:
	.cfi_startproc
	endbr64
	movq	8(%rdi), %rdi
	jmp	MPI_Abort@PLT
	.cfi_endproc
.LFE4950:
	.size	_ZN3MPI4Comm5AbortEi, .-_ZN3MPI4Comm5AbortEi
	.section	.rodata._ZNK4FP_t10writeAsciiEP8_IO_FILE.str1.8,"aMS",@progbits,1
	.align 8
.LC0:
	.string	"%lld   %12.11e  %12.11e   %12.11e   %12.11e   %12.11e   %12.11e   %12.11e   %12.11e   %12.11e   %12.11e\n"
	.section	.text._ZNK4FP_t10writeAsciiEP8_IO_FILE,"axG",@progbits,_ZNK4FP_t10writeAsciiEP8_IO_FILE,comdat
	.align 2
	.p2align 4
	.weak	_ZNK4FP_t10writeAsciiEP8_IO_FILE
	.type	_ZNK4FP_t10writeAsciiEP8_IO_FILE, @function
_ZNK4FP_t10writeAsciiEP8_IO_FILE:
.LFB7695:
	.cfi_startproc
	endbr64
	subq	$8, %rsp
	.cfi_def_cfa_offset 16
	vmovsd	48(%rdi), %xmm0
	movq	104(%rdi), %rcx
	pushq	176(%rdi)
	.cfi_def_cfa_offset 24
	pushq	144(%rdi)
	.cfi_def_cfa_offset 32
	movq	%rsi, %r8
	movl	$8, %eax
	leaq	.LC0(%rip), %rdx
	vmovsd	136(%rdi), %xmm7
	movl	$1, %esi
	vmovsd	72(%rdi), %xmm6
	vmovsd	64(%rdi), %xmm5
	vmovsd	56(%rdi), %xmm4
	vmovsd	16(%rdi), %xmm3
	vmovsd	8(%rdi), %xmm2
	vmovsd	(%rdi), %xmm1
	movq	%r8, %rdi
	call	__fprintf_chk@PLT
	addq	$24, %rsp
	.cfi_def_cfa_offset 8
	ret
	.cfi_endproc
.LFE7695:
	.size	_ZNK4FP_t10writeAsciiEP8_IO_FILE, .-_ZNK4FP_t10writeAsciiEP8_IO_FILE
	.section	.text._ZN3MPI3WinD0Ev,"axG",@progbits,_ZN3MPI3WinD5Ev,comdat
	.align 2
	.p2align 4
	.weak	_ZN3MPI3WinD0Ev
	.type	_ZN3MPI3WinD0Ev, @function
_ZN3MPI3WinD0Ev:
.LFB4689:
	.cfi_startproc
	endbr64
	movl	$16, %esi
	jmp	_ZdlPvm@PLT
	.cfi_endproc
.LFE4689:
	.size	_ZN3MPI3WinD0Ev, .-_ZN3MPI3WinD0Ev
	.section	.text._ZN3MPI4InfoD0Ev,"axG",@progbits,_ZN3MPI4InfoD5Ev,comdat
	.align 2
	.p2align 4
	.weak	_ZN3MPI4InfoD0Ev
	.type	_ZN3MPI4InfoD0Ev, @function
_ZN3MPI4InfoD0Ev:
.LFB4798:
	.cfi_startproc
	endbr64
	movl	$16, %esi
	jmp	_ZdlPvm@PLT
	.cfi_endproc
.LFE4798:
	.size	_ZN3MPI4InfoD0Ev, .-_ZN3MPI4InfoD0Ev
	.section	.text._ZN3MPI6StatusD0Ev,"axG",@progbits,_ZN3MPI6StatusD5Ev,comdat
	.align 2
	.p2align 4
	.weak	_ZN3MPI6StatusD0Ev
	.type	_ZN3MPI6StatusD0Ev, @function
_ZN3MPI6StatusD0Ev:
.LFB4584:
	.cfi_startproc
	endbr64
	movl	$32, %esi
	jmp	_ZdlPvm@PLT
	.cfi_endproc
.LFE4584:
	.size	_ZN3MPI6StatusD0Ev, .-_ZN3MPI6StatusD0Ev
	.section	.text._ZN3MPI10ErrhandlerD0Ev,"axG",@progbits,_ZN3MPI10ErrhandlerD5Ev,comdat
	.align 2
	.p2align 4
	.weak	_ZN3MPI10ErrhandlerD0Ev
	.type	_ZN3MPI10ErrhandlerD0Ev, @function
_ZN3MPI10ErrhandlerD0Ev:
.LFB4715:
	.cfi_startproc
	endbr64
	movl	$16, %esi
	jmp	_ZdlPvm@PLT
	.cfi_endproc
.LFE4715:
	.size	_ZN3MPI10ErrhandlerD0Ev, .-_ZN3MPI10ErrhandlerD0Ev
	.section	.text._ZN3MPI2OpD0Ev,"axG",@progbits,_ZN3MPI2OpD5Ev,comdat
	.align 2
	.p2align 4
	.weak	_ZN3MPI2OpD0Ev
	.type	_ZN3MPI2OpD0Ev, @function
_ZN3MPI2OpD0Ev:
.LFB5037:
	.cfi_startproc
	endbr64
	movl	$16, %esi
	jmp	_ZdlPvm@PLT
	.cfi_endproc
.LFE5037:
	.size	_ZN3MPI2OpD0Ev, .-_ZN3MPI2OpD0Ev
	.section	.text._ZN3MPI5GroupD0Ev,"axG",@progbits,_ZN3MPI5GroupD5Ev,comdat
	.align 2
	.p2align 4
	.weak	_ZN3MPI5GroupD0Ev
	.type	_ZN3MPI5GroupD0Ev, @function
_ZN3MPI5GroupD0Ev:
.LFB4648:
	.cfi_startproc
	endbr64
	movl	$16, %esi
	jmp	_ZdlPvm@PLT
	.cfi_endproc
.LFE4648:
	.size	_ZN3MPI5GroupD0Ev, .-_ZN3MPI5GroupD0Ev
	.section	.text._ZN3MPI8GrequestD0Ev,"axG",@progbits,_ZN3MPI8GrequestD5Ev,comdat
	.align 2
	.p2align 4
	.weak	_ZN3MPI8GrequestD0Ev
	.type	_ZN3MPI8GrequestD0Ev, @function
_ZN3MPI8GrequestD0Ev:
.LFB4633:
	.cfi_startproc
	endbr64
	movl	$16, %esi
	jmp	_ZdlPvm@PLT
	.cfi_endproc
.LFE4633:
	.size	_ZN3MPI8GrequestD0Ev, .-_ZN3MPI8GrequestD0Ev
	.section	.text._ZN3MPI7RequestD0Ev,"axG",@progbits,_ZN3MPI7RequestD5Ev,comdat
	.align 2
	.p2align 4
	.weak	_ZN3MPI7RequestD0Ev
	.type	_ZN3MPI7RequestD0Ev, @function
_ZN3MPI7RequestD0Ev:
.LFB4594:
	.cfi_startproc
	endbr64
	movl	$16, %esi
	jmp	_ZdlPvm@PLT
	.cfi_endproc
.LFE4594:
	.size	_ZN3MPI7RequestD0Ev, .-_ZN3MPI7RequestD0Ev
	.section	.text._ZN3MPI8PrequestD0Ev,"axG",@progbits,_ZN3MPI8PrequestD5Ev,comdat
	.align 2
	.p2align 4
	.weak	_ZN3MPI8PrequestD0Ev
	.type	_ZN3MPI8PrequestD0Ev, @function
_ZN3MPI8PrequestD0Ev:
.LFB4618:
	.cfi_startproc
	endbr64
	movl	$16, %esi
	jmp	_ZdlPvm@PLT
	.cfi_endproc
.LFE4618:
	.size	_ZN3MPI8PrequestD0Ev, .-_ZN3MPI8PrequestD0Ev
	.section	.text._ZN3MPI8DatatypeD0Ev,"axG",@progbits,_ZN3MPI8DatatypeD5Ev,comdat
	.align 2
	.p2align 4
	.weak	_ZN3MPI8DatatypeD0Ev
	.type	_ZN3MPI8DatatypeD0Ev, @function
_ZN3MPI8DatatypeD0Ev:
.LFB4548:
	.cfi_startproc
	endbr64
	movl	$16, %esi
	jmp	_ZdlPvm@PLT
	.cfi_endproc
.LFE4548:
	.size	_ZN3MPI8DatatypeD0Ev, .-_ZN3MPI8DatatypeD0Ev
	.section	.text._ZN3MPI9IntercommD0Ev,"axG",@progbits,_ZN3MPI9IntercommD5Ev,comdat
	.align 2
	.p2align 4
	.weak	_ZN3MPI9IntercommD0Ev
	.type	_ZN3MPI9IntercommD0Ev, @function
_ZN3MPI9IntercommD0Ev:
.LFB15787:
	.cfi_startproc
	endbr64
	movl	$16, %esi
	jmp	_ZdlPvm@PLT
	.cfi_endproc
.LFE15787:
	.size	_ZN3MPI9IntercommD0Ev, .-_ZN3MPI9IntercommD0Ev
	.section	.text._ZN3MPI9IntracommD0Ev,"axG",@progbits,_ZN3MPI9IntracommD5Ev,comdat
	.align 2
	.p2align 4
	.weak	_ZN3MPI9IntracommD0Ev
	.type	_ZN3MPI9IntracommD0Ev, @function
_ZN3MPI9IntracommD0Ev:
.LFB4747:
	.cfi_startproc
	endbr64
	movl	$16, %esi
	jmp	_ZdlPvm@PLT
	.cfi_endproc
.LFE4747:
	.size	_ZN3MPI9IntracommD0Ev, .-_ZN3MPI9IntracommD0Ev
	.section	.text._ZN3MPI9GraphcommD0Ev,"axG",@progbits,_ZN3MPI9GraphcommD5Ev,comdat
	.align 2
	.p2align 4
	.weak	_ZN3MPI9GraphcommD0Ev
	.type	_ZN3MPI9GraphcommD0Ev, @function
_ZN3MPI9GraphcommD0Ev:
.LFB15791:
	.cfi_startproc
	endbr64
	movl	$16, %esi
	jmp	_ZdlPvm@PLT
	.cfi_endproc
.LFE15791:
	.size	_ZN3MPI9GraphcommD0Ev, .-_ZN3MPI9GraphcommD0Ev
	.section	.text._ZN3MPI8CartcommD0Ev,"axG",@progbits,_ZN3MPI8CartcommD5Ev,comdat
	.align 2
	.p2align 4
	.weak	_ZN3MPI8CartcommD0Ev
	.type	_ZN3MPI8CartcommD0Ev, @function
_ZN3MPI8CartcommD0Ev:
.LFB15795:
	.cfi_startproc
	endbr64
	movl	$16, %esi
	jmp	_ZdlPvm@PLT
	.cfi_endproc
.LFE15795:
	.size	_ZN3MPI8CartcommD0Ev, .-_ZN3MPI8CartcommD0Ev
	.section	.text._ZNK3MPI9Intercomm5SplitEii,"axG",@progbits,_ZNK3MPI9Intercomm5SplitEii,comdat
	.align 2
	.p2align 4
	.weak	_ZNK3MPI9Intercomm5SplitEii
	.type	_ZNK3MPI9Intercomm5SplitEii, @function
_ZNK3MPI9Intercomm5SplitEii:
.LFB5012:
	.cfi_startproc
	endbr64
	pushq	%r12
	.cfi_def_cfa_offset 16
	.cfi_offset 12, -16
	movq	%rsi, %r8
	movq	%rdi, %r12
	movl	%edx, %esi
	movl	%ecx, %edx
	subq	$16, %rsp
	.cfi_def_cfa_offset 32
	movq	8(%r8), %rdi
	movq	%fs:40, %rax
	movq	%rax, 8(%rsp)
	xorl	%eax, %eax
	movq	%rsp, %rcx
	call	MPI_Comm_split@PLT
	movq	(%rsp), %rax
	movq	%rax, 8(%r12)
	leaq	16+_ZTVN3MPI9IntercommE(%rip), %rax
	movq	%rax, (%r12)
	movq	8(%rsp), %rax
	xorq	%fs:40, %rax
	jne	.L65
	addq	$16, %rsp
	.cfi_remember_state
	.cfi_def_cfa_offset 16
	movq	%r12, %rax
	popq	%r12
	.cfi_def_cfa_offset 8
	ret
.L65:
	.cfi_restore_state
	call	__stack_chk_fail@PLT
	.cfi_endproc
.LFE5012:
	.size	_ZNK3MPI9Intercomm5SplitEii, .-_ZNK3MPI9Intercomm5SplitEii
	.text
	.p2align 4
	.type	_ZN17ParticleSimulator18ReallocatableArrayI4FP_tE12ReallocInnerEi._omp_fn.2, @function
_ZN17ParticleSimulator18ReallocatableArrayI4FP_tE12ReallocInnerEi._omp_fn.2:
.LFB15800:
	.cfi_startproc
	endbr64
	pushq	%r12
	.cfi_def_cfa_offset 16
	.cfi_offset 12, -16
	pushq	%rbp
	.cfi_def_cfa_offset 24
	.cfi_offset 6, -24
	pushq	%rbx
	.cfi_def_cfa_offset 32
	.cfi_offset 3, -32
	movq	8(%rdi), %rbp
	movq	(%rdi), %r12
	call	omp_get_thread_num@PLT
	movl	%eax, %ebx
	call	omp_get_num_threads@PLT
	movl	%ebx, %ecx
	movq	(%r12), %rdi
	movl	%eax, %r8d
	movl	8(%r12), %eax
	cltd
	idivl	%r8d
	movl	%eax, %r8d
	imull	%ebx, %r8d
	cmpl	%ebx, %edx
	cmovle	%edx, %ecx
	addl	$1, %ebx
	addl	%r8d, %ecx
	movslq	%ecx, %rsi
	imulq	$184, %rsi, %rsi
	addq	%rsi, %rdi
	cmpl	%edx, %ebx
	cmovg	%edx, %ebx
	addl	%r8d, %eax
	addq	%rbp, %rsi
	leal	(%rbx,%rax), %edx
	popq	%rbx
	.cfi_def_cfa_offset 24
	popq	%rbp
	.cfi_def_cfa_offset 16
	subl	%ecx, %edx
	popq	%r12
	.cfi_def_cfa_offset 8
	movslq	%edx, %rdx
	imulq	$184, %rdx, %rdx
	jmp	memcpy@PLT
	.cfi_endproc
.LFE15800:
	.size	_ZN17ParticleSimulator18ReallocatableArrayI4FP_tE12ReallocInnerEi._omp_fn.2, .-_ZN17ParticleSimulator18ReallocatableArrayI4FP_tE12ReallocInnerEi._omp_fn.2
	.p2align 4
	.type	_ZN17ParticleSimulator18ReallocatableArrayI4FP_tE12ReallocInnerEi._omp_fn.1, @function
_ZN17ParticleSimulator18ReallocatableArrayI4FP_tE12ReallocInnerEi._omp_fn.1:
.LFB15799:
	.cfi_startproc
	endbr64
	pushq	%r12
	.cfi_def_cfa_offset 16
	.cfi_offset 12, -16
	pushq	%rbp
	.cfi_def_cfa_offset 24
	.cfi_offset 6, -24
	pushq	%rbx
	.cfi_def_cfa_offset 32
	.cfi_offset 3, -32
	movq	(%rdi), %r12
	movq	8(%rdi), %rbp
	call	omp_get_thread_num@PLT
	movl	%eax, %ebx
	call	omp_get_num_threads@PLT
	movl	%ebx, %ecx
	movl	%eax, %r8d
	movl	12(%r12), %eax
	cltd
	idivl	%r8d
	movl	%eax, %r8d
	imull	%ebx, %r8d
	cmpl	%ebx, %edx
	cmovle	%edx, %ecx
	addl	$1, %ebx
	addl	%r8d, %ecx
	movslq	%ecx, %rsi
	imulq	$184, %rsi, %rsi
	cmpl	%edx, %ebx
	cmovg	%edx, %ebx
	addl	%r8d, %eax
	leal	(%rbx,%rax), %edx
	leaq	0(%rbp,%rsi), %rdi
	popq	%rbx
	.cfi_def_cfa_offset 24
	addq	(%r12), %rsi
	subl	%ecx, %edx
	popq	%rbp
	.cfi_def_cfa_offset 16
	popq	%r12
	.cfi_def_cfa_offset 8
	movslq	%edx, %rdx
	imulq	$184, %rdx, %rdx
	jmp	memcpy@PLT
	.cfi_endproc
.LFE15799:
	.size	_ZN17ParticleSimulator18ReallocatableArrayI4FP_tE12ReallocInnerEi._omp_fn.1, .-_ZN17ParticleSimulator18ReallocatableArrayI4FP_tE12ReallocInnerEi._omp_fn.1
	.section	.text._ZNK3MPI4Comm4SendEPKviRKNS_8DatatypeEii,"axG",@progbits,_ZNK3MPI4Comm4SendEPKviRKNS_8DatatypeEii,comdat
	.align 2
	.p2align 4
	.weak	_ZNK3MPI4Comm4SendEPKviRKNS_8DatatypeEii
	.type	_ZNK3MPI4Comm4SendEPKviRKNS_8DatatypeEii, @function
_ZNK3MPI4Comm4SendEPKviRKNS_8DatatypeEii:
.LFB4897:
	.cfi_startproc
	endbr64
	movq	%rdi, %r10
	movq	%rcx, %r11
	movq	%rsi, %rdi
	movl	%r8d, %ecx
	movl	%edx, %esi
	movl	%r9d, %r8d
	movq	8(%r11), %rdx
	movq	8(%r10), %r9
	jmp	MPI_Send@PLT
	.cfi_endproc
.LFE4897:
	.size	_ZNK3MPI4Comm4SendEPKviRKNS_8DatatypeEii, .-_ZNK3MPI4Comm4SendEPKviRKNS_8DatatypeEii
	.section	.text._ZNK3MPI4Comm4RecvEPviRKNS_8DatatypeEii,"axG",@progbits,_ZNK3MPI4Comm4RecvEPviRKNS_8DatatypeEii,comdat
	.align 2
	.p2align 4
	.weak	_ZNK3MPI4Comm4RecvEPviRKNS_8DatatypeEii
	.type	_ZNK3MPI4Comm4RecvEPviRKNS_8DatatypeEii, @function
_ZNK3MPI4Comm4RecvEPviRKNS_8DatatypeEii:
.LFB4899:
	.cfi_startproc
	endbr64
	subq	$16, %rsp
	.cfi_def_cfa_offset 24
	movq	%rdi, %r11
	movq	%rcx, %r10
	movq	%rsi, %rdi
	movl	%r8d, %ecx
	movl	%edx, %esi
	movl	%r9d, %r8d
	movq	8(%r10), %rdx
	movq	8(%r11), %r9
	pushq	$0
	.cfi_def_cfa_offset 32
	call	MPI_Recv@PLT
	addq	$24, %rsp
	.cfi_def_cfa_offset 8
	ret
	.cfi_endproc
.LFE4899:
	.size	_ZNK3MPI4Comm4RecvEPviRKNS_8DatatypeEii, .-_ZNK3MPI4Comm4RecvEPviRKNS_8DatatypeEii
	.section	.text._ZNK3MPI4Comm4RecvEPviRKNS_8DatatypeEiiRNS_6StatusE,"axG",@progbits,_ZNK3MPI4Comm4RecvEPviRKNS_8DatatypeEiiRNS_6StatusE,comdat
	.align 2
	.p2align 4
	.weak	_ZNK3MPI4Comm4RecvEPviRKNS_8DatatypeEiiRNS_6StatusE
	.type	_ZNK3MPI4Comm4RecvEPviRKNS_8DatatypeEiiRNS_6StatusE, @function
_ZNK3MPI4Comm4RecvEPviRKNS_8DatatypeEiiRNS_6StatusE:
.LFB4898:
	.cfi_startproc
	endbr64
	movq	%rdi, %r11
	movq	%rcx, %r10
	movq	%rsi, %rdi
	movl	%r8d, %ecx
	movl	%edx, %esi
	movl	%r9d, %r8d
	movq	8(%r10), %rdx
	movq	8(%r11), %r9
	addq	$8, 8(%rsp)
	jmp	MPI_Recv@PLT
	.cfi_endproc
.LFE4898:
	.size	_ZNK3MPI4Comm4RecvEPviRKNS_8DatatypeEiiRNS_6StatusE, .-_ZNK3MPI4Comm4RecvEPviRKNS_8DatatypeEiiRNS_6StatusE
	.section	.text._ZNK3MPI4Comm7ScatterEPKviRKNS_8DatatypeEPviS5_i,"axG",@progbits,_ZNK3MPI4Comm7ScatterEPKviRKNS_8DatatypeEPviS5_i,comdat
	.align 2
	.p2align 4
	.weak	_ZNK3MPI4Comm7ScatterEPKviRKNS_8DatatypeEPviS5_i
	.type	_ZNK3MPI4Comm7ScatterEPKviRKNS_8DatatypeEPviS5_i, @function
_ZNK3MPI4Comm7ScatterEPKviRKNS_8DatatypeEPviS5_i:
.LFB4934:
	.cfi_startproc
	endbr64
	movq	%rdi, %r10
	movq	8(%rsp), %rax
	movq	%rcx, %r11
	movq	%r8, %rcx
	movq	8(%r10), %r10
	movl	%r9d, %r8d
	movl	16(%rsp), %r9d
	movq	%rsi, %rdi
	movl	%edx, %esi
	movq	8(%r11), %rdx
	movq	%r10, 16(%rsp)
	movl	%r9d, 8(%rsp)
	movq	8(%rax), %r9
	jmp	MPI_Scatter@PLT
	.cfi_endproc
.LFE4934:
	.size	_ZNK3MPI4Comm7ScatterEPKviRKNS_8DatatypeEPviS5_i, .-_ZNK3MPI4Comm7ScatterEPKviRKNS_8DatatypeEPviS5_i
	.section	.text._ZNK3MPI8Datatype17Create_contiguousEi,"axG",@progbits,_ZNK3MPI8Datatype17Create_contiguousEi,comdat
	.align 2
	.p2align 4
	.weak	_ZNK3MPI8Datatype17Create_contiguousEi
	.type	_ZNK3MPI8Datatype17Create_contiguousEi, @function
_ZNK3MPI8Datatype17Create_contiguousEi:
.LFB4802:
	.cfi_startproc
	endbr64
	pushq	%r12
	.cfi_def_cfa_offset 16
	.cfi_offset 12, -16
	movq	%rdi, %r12
	movl	%edx, %edi
	subq	$16, %rsp
	.cfi_def_cfa_offset 32
	movq	8(%rsi), %rsi
	movq	%fs:40, %rax
	movq	%rax, 8(%rsp)
	xorl	%eax, %eax
	movq	%rsp, %rdx
	call	MPI_Type_contiguous@PLT
	leaq	16+_ZTVN3MPI8DatatypeE(%rip), %rax
	movq	%rax, (%r12)
	movq	(%rsp), %rax
	movq	%rax, 8(%r12)
	movq	8(%rsp), %rax
	xorq	%fs:40, %rax
	jne	.L78
	addq	$16, %rsp
	.cfi_remember_state
	.cfi_def_cfa_offset 16
	movq	%r12, %rax
	popq	%r12
	.cfi_def_cfa_offset 8
	ret
.L78:
	.cfi_restore_state
	call	__stack_chk_fail@PLT
	.cfi_endproc
.LFE4802:
	.size	_ZNK3MPI8Datatype17Create_contiguousEi, .-_ZNK3MPI8Datatype17Create_contiguousEi
	.section	.text._ZN3MPI8Datatype6CommitEv,"axG",@progbits,_ZN3MPI8Datatype6CommitEv,comdat
	.align 2
	.p2align 4
	.weak	_ZN3MPI8Datatype6CommitEv
	.type	_ZN3MPI8Datatype6CommitEv, @function
_ZN3MPI8Datatype6CommitEv:
.LFB4813:
	.cfi_startproc
	endbr64
	addq	$8, %rdi
	jmp	MPI_Type_commit@PLT
	.cfi_endproc
.LFE4813:
	.size	_ZN3MPI8Datatype6CommitEv, .-_ZN3MPI8Datatype6CommitEv
	.text
	.p2align 4
	.type	_ZN17ParticleSimulator18ReallocatableArrayIiE12ReallocInnerEi._omp_fn.0, @function
_ZN17ParticleSimulator18ReallocatableArrayIiE12ReallocInnerEi._omp_fn.0:
.LFB15801:
	.cfi_startproc
	endbr64
	pushq	%rbp
	.cfi_def_cfa_offset 16
	.cfi_offset 6, -16
	movq	%rsp, %rbp
	.cfi_def_cfa_register 6
	pushq	%r12
	.cfi_offset 12, -24
	movq	%rdi, %r12
	pushq	%rbx
	andq	$-32, %rsp
	.cfi_offset 3, -32
	call	omp_get_num_threads@PLT
	movl	%eax, %ebx
	call	omp_get_thread_num@PLT
	movl	%eax, %ecx
	movq	(%r12), %rax
	movl	8(%rax), %eax
	cltd
	idivl	%ebx
	cmpl	%edx, %ecx
	jl	.L81
.L87:
	imull	%eax, %ecx
	addl	%ecx, %edx
	leal	(%rax,%rdx), %r9d
	cmpl	%r9d, %edx
	jge	.L102
	movq	16(%r12), %r10
	movq	8(%r12), %r11
	movslq	%edx, %rcx
	leaq	32(,%rcx,4), %r8
	leaq	0(,%rcx,4), %rsi
	leaq	(%r10,%r8), %rbx
	leaq	(%r11,%rsi), %rdi
	addq	%r10, %rsi
	cmpq	%rbx, %rdi
	setnb	%bl
	addq	%r11, %r8
	cmpq	%r8, %rsi
	setnb	%r8b
	orb	%r8b, %bl
	je	.L90
	leal	-1(%rax), %r8d
	cmpl	$6, %r8d
	jbe	.L90
	movl	%eax, %r8d
	xorl	%ecx, %ecx
	shrl	$3, %r8d
	salq	$5, %r8
	.p2align 4,,10
	.p2align 3
.L84:
	vmovdqu	(%rdi,%rcx), %xmm1
	vinserti128	$0x1, 16(%rdi,%rcx), %ymm1, %ymm0
	vmovups	%xmm0, (%rsi,%rcx)
	vextracti128	$0x1, %ymm0, 16(%rsi,%rcx)
	addq	$32, %rcx
	cmpq	%r8, %rcx
	jne	.L84
	movl	%eax, %ecx
	andl	$-8, %ecx
	addl	%ecx, %edx
	cmpl	%ecx, %eax
	je	.L101
	movslq	%edx, %rax
	movl	(%r11,%rax,4), %ecx
	movl	%ecx, (%r10,%rax,4)
	leal	1(%rdx), %ecx
	cmpl	%ecx, %r9d
	jle	.L101
	movslq	%ecx, %rcx
	movl	(%r11,%rcx,4), %eax
	movl	%eax, (%r10,%rcx,4)
	leal	2(%rdx), %ecx
	cmpl	%ecx, %r9d
	jle	.L101
	movslq	%ecx, %rcx
	movl	(%r11,%rcx,4), %eax
	movl	%eax, (%r10,%rcx,4)
	leal	3(%rdx), %ecx
	cmpl	%ecx, %r9d
	jle	.L101
	movslq	%ecx, %rcx
	movl	(%r11,%rcx,4), %eax
	movl	%eax, (%r10,%rcx,4)
	leal	4(%rdx), %eax
	cmpl	%eax, %r9d
	jle	.L101
	cltq
	movl	(%r11,%rax,4), %ecx
	movl	%ecx, (%r10,%rax,4)
	leal	5(%rdx), %eax
	cmpl	%eax, %r9d
	jle	.L101
	cltq
	addl	$6, %edx
	movl	(%r11,%rax,4), %ecx
	movl	%ecx, (%r10,%rax,4)
	cmpl	%edx, %r9d
	jle	.L101
	movslq	%edx, %rdx
	movl	(%r11,%rdx,4), %eax
	movl	%eax, (%r10,%rdx,4)
	vzeroupper
.L102:
	leaq	-16(%rbp), %rsp
	popq	%rbx
	popq	%r12
	popq	%rbp
	.cfi_remember_state
	.cfi_def_cfa 7, 8
	ret
	.p2align 4,,10
	.p2align 3
.L90:
	.cfi_restore_state
	movl	(%r11,%rcx,4), %eax
	movl	%eax, (%r10,%rcx,4)
	addq	$1, %rcx
	cmpl	%ecx, %r9d
	jg	.L90
	jmp	.L102
	.p2align 4,,10
	.p2align 3
.L101:
	vzeroupper
	leaq	-16(%rbp), %rsp
	popq	%rbx
	popq	%r12
	popq	%rbp
	.cfi_remember_state
	.cfi_def_cfa 7, 8
	ret
	.p2align 4,,10
	.p2align 3
.L81:
	.cfi_restore_state
	addl	$1, %eax
	xorl	%edx, %edx
	jmp	.L87
	.cfi_endproc
.LFE15801:
	.size	_ZN17ParticleSimulator18ReallocatableArrayIiE12ReallocInnerEi._omp_fn.0, .-_ZN17ParticleSimulator18ReallocatableArrayIiE12ReallocInnerEi._omp_fn.0
	.p2align 4
	.type	_ZN17ParticleSimulator18ReallocatableArrayIiE12ReallocInnerEi._omp_fn.1, @function
_ZN17ParticleSimulator18ReallocatableArrayIiE12ReallocInnerEi._omp_fn.1:
.LFB15802:
	.cfi_startproc
	endbr64
	pushq	%r12
	.cfi_def_cfa_offset 16
	.cfi_offset 12, -16
	pushq	%rbp
	.cfi_def_cfa_offset 24
	.cfi_offset 6, -24
	pushq	%rbx
	.cfi_def_cfa_offset 32
	.cfi_offset 3, -32
	movq	(%rdi), %r12
	movq	8(%rdi), %rbp
	call	omp_get_thread_num@PLT
	movl	%eax, %ebx
	call	omp_get_num_threads@PLT
	movl	%ebx, %ecx
	movl	%eax, %r8d
	movl	12(%r12), %eax
	cltd
	idivl	%r8d
	movl	%eax, %r8d
	imull	%ebx, %r8d
	cmpl	%ebx, %edx
	cmovle	%edx, %ecx
	addl	$1, %ebx
	addl	%r8d, %ecx
	movslq	%ecx, %rsi
	salq	$2, %rsi
	cmpl	%edx, %ebx
	cmovg	%edx, %ebx
	addl	%r8d, %eax
	leaq	0(%rbp,%rsi), %rdi
	addq	(%r12), %rsi
	leal	(%rbx,%rax), %edx
	popq	%rbx
	.cfi_def_cfa_offset 24
	popq	%rbp
	.cfi_def_cfa_offset 16
	subl	%ecx, %edx
	popq	%r12
	.cfi_def_cfa_offset 8
	movslq	%edx, %rdx
	salq	$2, %rdx
	jmp	memcpy@PLT
	.cfi_endproc
.LFE15802:
	.size	_ZN17ParticleSimulator18ReallocatableArrayIiE12ReallocInnerEi._omp_fn.1, .-_ZN17ParticleSimulator18ReallocatableArrayIiE12ReallocInnerEi._omp_fn.1
	.p2align 4
	.type	_ZN17ParticleSimulator18ReallocatableArrayIiE12ReallocInnerEi._omp_fn.2, @function
_ZN17ParticleSimulator18ReallocatableArrayIiE12ReallocInnerEi._omp_fn.2:
.LFB15803:
	.cfi_startproc
	endbr64
	pushq	%r12
	.cfi_def_cfa_offset 16
	.cfi_offset 12, -16
	pushq	%rbp
	.cfi_def_cfa_offset 24
	.cfi_offset 6, -24
	pushq	%rbx
	.cfi_def_cfa_offset 32
	.cfi_offset 3, -32
	movq	8(%rdi), %rbp
	movq	(%rdi), %r12
	call	omp_get_thread_num@PLT
	movl	%eax, %ebx
	call	omp_get_num_threads@PLT
	movl	%ebx, %ecx
	movq	(%r12), %rdi
	movl	%eax, %r8d
	movl	8(%r12), %eax
	cltd
	idivl	%r8d
	movl	%eax, %r8d
	imull	%ebx, %r8d
	cmpl	%ebx, %edx
	cmovle	%edx, %ecx
	addl	$1, %ebx
	addl	%r8d, %ecx
	movslq	%ecx, %rsi
	salq	$2, %rsi
	addq	%rsi, %rdi
	cmpl	%edx, %ebx
	cmovg	%edx, %ebx
	addl	%r8d, %eax
	addq	%rbp, %rsi
	leal	(%rbx,%rax), %edx
	popq	%rbx
	.cfi_def_cfa_offset 24
	popq	%rbp
	.cfi_def_cfa_offset 16
	subl	%ecx, %edx
	popq	%r12
	.cfi_def_cfa_offset 8
	movslq	%edx, %rdx
	salq	$2, %rdx
	jmp	memcpy@PLT
	.cfi_endproc
.LFE15803:
	.size	_ZN17ParticleSimulator18ReallocatableArrayIiE12ReallocInnerEi._omp_fn.2, .-_ZN17ParticleSimulator18ReallocatableArrayIiE12ReallocInnerEi._omp_fn.2
	.section	.text._ZNK3MPI4Comm9AllgatherEPKviRKNS_8DatatypeEPviS5_,"axG",@progbits,_ZNK3MPI4Comm9AllgatherEPKviRKNS_8DatatypeEPviS5_,comdat
	.align 2
	.p2align 4
	.weak	_ZNK3MPI4Comm9AllgatherEPKviRKNS_8DatatypeEPviS5_
	.type	_ZNK3MPI4Comm9AllgatherEPKviRKNS_8DatatypeEPviS5_, @function
_ZNK3MPI4Comm9AllgatherEPKviRKNS_8DatatypeEPviS5_:
.LFB4936:
	.cfi_startproc
	endbr64
	movq	%rdi, %r10
	movq	8(%rsp), %rax
	movq	%rcx, %r11
	movq	%r8, %rcx
	movl	%r9d, %r8d
	movq	8(%r10), %r9
	movq	%rsi, %rdi
	movl	%edx, %esi
	movq	8(%r11), %rdx
	movq	%r9, 8(%rsp)
	movq	8(%rax), %r9
	jmp	MPI_Allgather@PLT
	.cfi_endproc
.LFE4936:
	.size	_ZNK3MPI4Comm9AllgatherEPKviRKNS_8DatatypeEPviS5_, .-_ZNK3MPI4Comm9AllgatherEPKviRKNS_8DatatypeEPviS5_
	.section	.text._ZNK3MPI4Comm10AllgathervEPKviRKNS_8DatatypeEPvPKiS8_S5_,"axG",@progbits,_ZNK3MPI4Comm10AllgathervEPKviRKNS_8DatatypeEPvPKiS8_S5_,comdat
	.align 2
	.p2align 4
	.weak	_ZNK3MPI4Comm10AllgathervEPKviRKNS_8DatatypeEPvPKiS8_S5_
	.type	_ZNK3MPI4Comm10AllgathervEPKviRKNS_8DatatypeEPvPKiS8_S5_, @function
_ZNK3MPI4Comm10AllgathervEPKviRKNS_8DatatypeEPvPKiS8_S5_:
.LFB4937:
	.cfi_startproc
	endbr64
	movq	%rdi, %r10
	movq	16(%rsp), %rax
	movq	%rcx, %r11
	movq	%rsi, %rdi
	movq	8(%r10), %r10
	movl	%edx, %esi
	movq	%r8, %rcx
	movq	8(%r11), %rdx
	movq	%r9, %r8
	movq	8(%rsp), %r9
	movq	%r10, 16(%rsp)
	movq	8(%rax), %rax
	movq	%rax, 8(%rsp)
	jmp	MPI_Allgatherv@PLT
	.cfi_endproc
.LFE4937:
	.size	_ZNK3MPI4Comm10AllgathervEPKviRKNS_8DatatypeEPvPKiS8_S5_, .-_ZNK3MPI4Comm10AllgathervEPKviRKNS_8DatatypeEPvPKiS8_S5_
	.text
	.p2align 4
	.type	_Z5DriftIN17ParticleSimulator14ParticleSystemI4FP_tEEEvRT_d._omp_fn.0, @function
_Z5DriftIN17ParticleSimulator14ParticleSystemI4FP_tEEEvRT_d._omp_fn.0:
.LFB15804:
	.cfi_startproc
	endbr64
	pushq	%rbp
	.cfi_def_cfa_offset 16
	.cfi_offset 6, -16
	pushq	%rbx
	.cfi_def_cfa_offset 24
	.cfi_offset 3, -24
	movq	%rdi, %rbx
	subq	$8, %rsp
	.cfi_def_cfa_offset 32
	call	omp_get_num_threads@PLT
	movl	%eax, %ebp
	call	omp_get_thread_num@PLT
	movl	%eax, %ecx
	movl	16(%rbx), %eax
	cltd
	idivl	%ebp
	cmpl	%edx, %ecx
	jl	.L111
.L114:
	imull	%eax, %ecx
	addl	%ecx, %edx
	leal	(%rax,%rdx), %ecx
	cmpl	%ecx, %edx
	jge	.L116
	movq	(%rbx), %rcx
	movslq	%edx, %rdx
	subl	$1, %eax
	vmovsd	8(%rbx), %xmm2
	movq	456(%rcx), %rsi
	imulq	$184, %rdx, %rcx
	addq	%rax, %rdx
	vmovddup	%xmm2, %xmm3
	imulq	$184, %rdx, %rdx
	addq	%rsi, %rcx
	leaq	184(%rsi,%rdx), %rax
	.p2align 4,,10
	.p2align 3
.L113:
	vmovsd	72(%rcx), %xmm0
	vmovupd	56(%rcx), %xmm1
	addq	$184, %rcx
	vfmadd213sd	-168(%rcx), %xmm2, %xmm0
	vfmadd213pd	-184(%rcx), %xmm3, %xmm1
	vmovsd	%xmm0, -168(%rcx)
	vmovups	%xmm1, -184(%rcx)
	cmpq	%rcx, %rax
	jne	.L113
.L116:
	addq	$8, %rsp
	.cfi_remember_state
	.cfi_def_cfa_offset 24
	popq	%rbx
	.cfi_def_cfa_offset 16
	popq	%rbp
	.cfi_def_cfa_offset 8
	ret
	.p2align 4,,10
	.p2align 3
.L111:
	.cfi_restore_state
	addl	$1, %eax
	xorl	%edx, %edx
	jmp	.L114
	.cfi_endproc
.LFE15804:
	.size	_Z5DriftIN17ParticleSimulator14ParticleSystemI4FP_tEEEvRT_d._omp_fn.0, .-_Z5DriftIN17ParticleSimulator14ParticleSystemI4FP_tEEEvRT_d._omp_fn.0
	.p2align 4
	.type	_ZN17ParticleSimulator18ReallocatableArrayINS_7Vector3IdEEE12ReallocInnerEi._omp_fn.0, @function
_ZN17ParticleSimulator18ReallocatableArrayINS_7Vector3IdEEE12ReallocInnerEi._omp_fn.0:
.LFB15807:
	.cfi_startproc
	endbr64
	pushq	%rbp
	.cfi_def_cfa_offset 16
	.cfi_offset 6, -16
	movq	%rsp, %rbp
	.cfi_def_cfa_register 6
	pushq	%r13
	pushq	%r12
	.cfi_offset 13, -24
	.cfi_offset 12, -32
	movq	%rdi, %r12
	pushq	%rbx
	andq	$-32, %rsp
	.cfi_offset 3, -40
	call	omp_get_num_threads@PLT
	movl	%eax, %ebx
	call	omp_get_thread_num@PLT
	movl	%eax, %ecx
	movq	(%r12), %rax
	movl	8(%rax), %eax
	cltd
	idivl	%ebx
	cmpl	%edx, %ecx
	jl	.L119
.L126:
	imull	%eax, %ecx
	addl	%ecx, %edx
	leal	(%rax,%rdx), %r10d
	cmpl	%r10d, %edx
	jge	.L138
	movslq	%edx, %rbx
	movq	16(%r12), %r9
	movq	8(%r12), %r8
	leal	-1(%rax), %r12d
	leaq	(%rbx,%rbx,2), %rdi
	salq	$3, %rdi
	leaq	96(%rdi), %r11
	leaq	(%r8,%rdi), %rcx
	leaq	(%r9,%r11), %r13
	leaq	(%r9,%rdi), %rsi
	cmpq	%r13, %rcx
	setnb	%r13b
	addq	%r8, %r11
	cmpq	%r11, %rsi
	setnb	%r11b
	orb	%r11b, %r13b
	je	.L121
	cmpl	$2, %r12d
	jbe	.L121
	movl	%eax, %edi
	shrl	$2, %edi
	leaq	(%rdi,%rdi,2), %rdi
	salq	$5, %rdi
	addq	%rcx, %rdi
	.p2align 4,,10
	.p2align 3
.L122:
	vmovupd	(%rcx), %xmm3
	vmovupd	32(%rcx), %xmm4
	addq	$96, %rcx
	addq	$96, %rsi
	vmovupd	-32(%rcx), %xmm5
	vinsertf128	$0x1, -80(%rcx), %ymm3, %ymm2
	vinsertf128	$0x1, -48(%rcx), %ymm4, %ymm1
	vinsertf128	$0x1, -16(%rcx), %ymm5, %ymm0
	vmovups	%xmm2, -96(%rsi)
	vextractf128	$0x1, %ymm2, -80(%rsi)
	vmovups	%xmm1, -64(%rsi)
	vextractf128	$0x1, %ymm1, -48(%rsi)
	vextractf128	$0x1, %ymm0, -16(%rsi)
	vmovups	%xmm0, -32(%rsi)
	cmpq	%rcx, %rdi
	jne	.L122
	movl	%eax, %ecx
	andl	$-4, %ecx
	addl	%ecx, %edx
	cmpl	%ecx, %eax
	je	.L137
	movslq	%edx, %rax
	leaq	(%rax,%rax,2), %rcx
	salq	$3, %rcx
	leaq	(%r8,%rcx), %rsi
	leaq	(%r9,%rcx), %rax
	vmovupd	(%rsi), %xmm7
	vmovups	%xmm7, (%rax)
	vmovsd	16(%rsi), %xmm0
	vmovsd	%xmm0, 16(%rax)
	leal	1(%rdx), %eax
	cmpl	%r10d, %eax
	jge	.L137
	leaq	24(%rcx), %rax
	addl	$2, %edx
	leaq	(%r8,%rax), %rsi
	addq	%r9, %rax
	vmovupd	(%rsi), %xmm7
	vmovups	%xmm7, (%rax)
	vmovsd	16(%rsi), %xmm0
	vmovsd	%xmm0, 16(%rax)
	cmpl	%edx, %r10d
	jle	.L137
	addq	$48, %rcx
	addq	%rcx, %r8
	addq	%rcx, %r9
	vmovupd	(%r8), %xmm7
	vmovups	%xmm7, (%r9)
	vmovsd	16(%r8), %xmm0
	vmovsd	%xmm0, 16(%r9)
	vzeroupper
.L138:
	leaq	-24(%rbp), %rsp
	popq	%rbx
	popq	%r12
	popq	%r13
	popq	%rbp
	.cfi_remember_state
	.cfi_def_cfa 7, 8
	ret
	.p2align 4,,10
	.p2align 3
.L119:
	.cfi_restore_state
	addl	$1, %eax
	xorl	%edx, %edx
	jmp	.L126
	.p2align 4,,10
	.p2align 3
.L121:
	leaq	1(%rbx,%r12), %rax
	leaq	(%rax,%rax,2), %rax
	salq	$3, %rax
	.p2align 4,,10
	.p2align 3
.L124:
	vmovupd	(%r8,%rdi), %xmm6
	vmovups	%xmm6, (%r9,%rdi)
	vmovsd	16(%r8,%rdi), %xmm0
	vmovsd	%xmm0, 16(%r9,%rdi)
	addq	$24, %rdi
	cmpq	%rdi, %rax
	jne	.L124
	jmp	.L138
	.p2align 4,,10
	.p2align 3
.L137:
	vzeroupper
	leaq	-24(%rbp), %rsp
	popq	%rbx
	popq	%r12
	popq	%r13
	popq	%rbp
	.cfi_def_cfa 7, 8
	ret
	.cfi_endproc
.LFE15807:
	.size	_ZN17ParticleSimulator18ReallocatableArrayINS_7Vector3IdEEE12ReallocInnerEi._omp_fn.0, .-_ZN17ParticleSimulator18ReallocatableArrayINS_7Vector3IdEEE12ReallocInnerEi._omp_fn.0
	.p2align 4
	.type	_ZN17ParticleSimulator18ReallocatableArrayINS_7Vector3IdEEE12ReallocInnerEi._omp_fn.1, @function
_ZN17ParticleSimulator18ReallocatableArrayINS_7Vector3IdEEE12ReallocInnerEi._omp_fn.1:
.LFB15808:
	.cfi_startproc
	endbr64
	pushq	%r12
	.cfi_def_cfa_offset 16
	.cfi_offset 12, -16
	pushq	%rbp
	.cfi_def_cfa_offset 24
	.cfi_offset 6, -24
	pushq	%rbx
	.cfi_def_cfa_offset 32
	.cfi_offset 3, -32
	movq	(%rdi), %r12
	movq	8(%rdi), %rbp
	call	omp_get_thread_num@PLT
	movl	%eax, %ebx
	call	omp_get_num_threads@PLT
	movl	%ebx, %ecx
	movl	%eax, %r8d
	movl	12(%r12), %eax
	cltd
	idivl	%r8d
	movl	%eax, %r8d
	imull	%ebx, %r8d
	cmpl	%ebx, %edx
	cmovle	%edx, %ecx
	addl	$1, %ebx
	addl	%r8d, %ecx
	movslq	%ecx, %rsi
	leaq	(%rsi,%rsi,2), %rsi
	salq	$3, %rsi
	cmpl	%edx, %ebx
	cmovg	%edx, %ebx
	addl	%r8d, %eax
	leaq	0(%rbp,%rsi), %rdi
	addq	(%r12), %rsi
	addl	%eax, %ebx
	subl	%ecx, %ebx
	movslq	%ebx, %rbx
	leaq	(%rbx,%rbx,2), %rdx
	popq	%rbx
	.cfi_def_cfa_offset 24
	popq	%rbp
	.cfi_def_cfa_offset 16
	salq	$3, %rdx
	popq	%r12
	.cfi_def_cfa_offset 8
	jmp	memcpy@PLT
	.cfi_endproc
.LFE15808:
	.size	_ZN17ParticleSimulator18ReallocatableArrayINS_7Vector3IdEEE12ReallocInnerEi._omp_fn.1, .-_ZN17ParticleSimulator18ReallocatableArrayINS_7Vector3IdEEE12ReallocInnerEi._omp_fn.1
	.p2align 4
	.type	_ZN17ParticleSimulator18ReallocatableArrayINS_7Vector3IdEEE12ReallocInnerEi._omp_fn.2, @function
_ZN17ParticleSimulator18ReallocatableArrayINS_7Vector3IdEEE12ReallocInnerEi._omp_fn.2:
.LFB15809:
	.cfi_startproc
	endbr64
	pushq	%r12
	.cfi_def_cfa_offset 16
	.cfi_offset 12, -16
	pushq	%rbp
	.cfi_def_cfa_offset 24
	.cfi_offset 6, -24
	pushq	%rbx
	.cfi_def_cfa_offset 32
	.cfi_offset 3, -32
	movq	8(%rdi), %rbp
	movq	(%rdi), %r12
	call	omp_get_thread_num@PLT
	movl	%eax, %ebx
	call	omp_get_num_threads@PLT
	movl	%ebx, %ecx
	movq	(%r12), %rdi
	movl	%eax, %r8d
	movl	8(%r12), %eax
	cltd
	idivl	%r8d
	movl	%eax, %r8d
	imull	%ebx, %r8d
	cmpl	%ebx, %edx
	cmovle	%edx, %ecx
	addl	$1, %ebx
	addl	%r8d, %ecx
	movslq	%ecx, %rsi
	leaq	(%rsi,%rsi,2), %rsi
	salq	$3, %rsi
	addq	%rsi, %rdi
	cmpl	%edx, %ebx
	cmovg	%edx, %ebx
	addl	%r8d, %eax
	addq	%rbp, %rsi
	addl	%eax, %ebx
	subl	%ecx, %ebx
	movslq	%ebx, %rbx
	leaq	(%rbx,%rbx,2), %rdx
	popq	%rbx
	.cfi_def_cfa_offset 24
	popq	%rbp
	.cfi_def_cfa_offset 16
	salq	$3, %rdx
	popq	%r12
	.cfi_def_cfa_offset 8
	jmp	memcpy@PLT
	.cfi_endproc
.LFE15809:
	.size	_ZN17ParticleSimulator18ReallocatableArrayINS_7Vector3IdEEE12ReallocInnerEi._omp_fn.2, .-_ZN17ParticleSimulator18ReallocatableArrayINS_7Vector3IdEEE12ReallocInnerEi._omp_fn.2
	.section	.text._ZNK3MPI4Comm5BcastEPviRKNS_8DatatypeEi,"axG",@progbits,_ZNK3MPI4Comm5BcastEPviRKNS_8DatatypeEi,comdat
	.align 2
	.p2align 4
	.weak	_ZNK3MPI4Comm5BcastEPviRKNS_8DatatypeEi
	.type	_ZNK3MPI4Comm5BcastEPviRKNS_8DatatypeEi, @function
_ZNK3MPI4Comm5BcastEPviRKNS_8DatatypeEi:
.LFB4931:
	.cfi_startproc
	endbr64
	movq	%rdi, %r9
	movq	%rcx, %r10
	movq	%rsi, %rdi
	movl	%r8d, %ecx
	movl	%edx, %esi
	movq	8(%r9), %r8
	movq	8(%r10), %rdx
	jmp	MPI_Bcast@PLT
	.cfi_endproc
.LFE4931:
	.size	_ZNK3MPI4Comm5BcastEPviRKNS_8DatatypeEi, .-_ZNK3MPI4Comm5BcastEPviRKNS_8DatatypeEi
	.text
	.p2align 4
	.type	_ZN17ParticleSimulator14ParticleSystemI4FP_tE28adjustPositionIntoRootDomainERKNS_10DomainInfoE._omp_fn.0, @function
_ZN17ParticleSimulator14ParticleSystemI4FP_tE28adjustPositionIntoRootDomainERKNS_10DomainInfoE._omp_fn.0:
.LFB15810:
	.cfi_startproc
	endbr64
	pushq	%rbp
	.cfi_def_cfa_offset 16
	.cfi_offset 6, -16
	pushq	%rbx
	.cfi_def_cfa_offset 24
	.cfi_offset 3, -24
	movq	%rdi, %rbx
	subq	$8, %rsp
	.cfi_def_cfa_offset 32
	call	omp_get_num_threads@PLT
	movl	%eax, %ebp
	call	omp_get_thread_num@PLT
	movl	%eax, %ecx
	movl	24(%rbx), %eax
	cltd
	idivl	%ebp
	cmpl	%edx, %ecx
	jl	.L146
.L164:
	imull	%eax, %ecx
	addl	%ecx, %edx
	leal	(%rax,%rdx), %ecx
	cmpl	%ecx, %edx
	jge	.L174
	movslq	%edx, %rdi
	subl	$1, %eax
	movq	(%rbx), %rcx
	movq	16(%rbx), %rsi
	addq	%rdi, %rax
	imulq	$184, %rdi, %rdx
	imulq	$184, %rax, %rax
	movq	456(%rcx), %r8
	movq	8(%rbx), %rcx
	leaq	24(%r8,%rdx), %rdx
	leaq	208(%r8,%rax), %rax
	.p2align 4,,10
	.p2align 3
.L165:
	vmovsd	(%rdx), %xmm0
	vmovsd	(%rcx), %xmm3
	vmovsd	8(%rdx), %xmm1
	vmovsd	16(%rdx), %xmm2
	vcomisd	%xmm3, %xmm0
	jnb	.L162
	vmovsd	(%rsi), %xmm4
	.p2align 4,,10
	.p2align 3
.L163:
	vaddsd	%xmm4, %xmm0, %xmm0
	vcomisd	%xmm3, %xmm0
	jb	.L163
.L162:
	vmovsd	24(%rcx), %xmm3
	vcomisd	%xmm0, %xmm3
	ja	.L150
	vmovsd	(%rsi), %xmm4
	.p2align 4,,10
	.p2align 3
.L161:
	vsubsd	%xmm4, %xmm0, %xmm0
	vcomisd	%xmm0, %xmm3
	jbe	.L161
.L150:
	vmovsd	8(%rcx), %xmm3
	vcomisd	%xmm3, %xmm1
	jnb	.L159
	vmovsd	8(%rsi), %xmm4
	.p2align 4,,10
	.p2align 3
.L160:
	vaddsd	%xmm4, %xmm1, %xmm1
	vcomisd	%xmm3, %xmm1
	jb	.L160
.L159:
	vmovsd	32(%rcx), %xmm3
	vcomisd	%xmm1, %xmm3
	ja	.L152
	vmovsd	8(%rsi), %xmm4
	.p2align 4,,10
	.p2align 3
.L158:
	vsubsd	%xmm4, %xmm1, %xmm1
	vcomisd	%xmm1, %xmm3
	jbe	.L158
.L152:
	vmovsd	16(%rcx), %xmm3
	vcomisd	%xmm3, %xmm2
	jnb	.L156
	vmovsd	16(%rsi), %xmm4
	.p2align 4,,10
	.p2align 3
.L157:
	vaddsd	%xmm4, %xmm2, %xmm2
	vcomisd	%xmm3, %xmm2
	jb	.L157
.L156:
	vmovsd	40(%rcx), %xmm3
	vcomisd	%xmm2, %xmm3
	ja	.L154
	vmovsd	16(%rsi), %xmm4
	.p2align 4,,10
	.p2align 3
.L155:
	vsubsd	%xmm4, %xmm2, %xmm2
	vcomisd	%xmm2, %xmm3
	jbe	.L155
.L154:
	vunpcklpd	%xmm1, %xmm0, %xmm0
	vmovsd	%xmm2, 16(%rdx)
	addq	$184, %rdx
	vmovups	%xmm0, -184(%rdx)
	cmpq	%rax, %rdx
	jne	.L165
.L174:
	addq	$8, %rsp
	.cfi_remember_state
	.cfi_def_cfa_offset 24
	popq	%rbx
	.cfi_def_cfa_offset 16
	popq	%rbp
	.cfi_def_cfa_offset 8
	ret
.L146:
	.cfi_restore_state
	addl	$1, %eax
	xorl	%edx, %edx
	jmp	.L164
	.cfi_endproc
.LFE15810:
	.size	_ZN17ParticleSimulator14ParticleSystemI4FP_tE28adjustPositionIntoRootDomainERKNS_10DomainInfoE._omp_fn.0, .-_ZN17ParticleSimulator14ParticleSystemI4FP_tE28adjustPositionIntoRootDomainERKNS_10DomainInfoE._omp_fn.0
	.section	.text._ZNK3MPI4Comm5IrecvEPviRKNS_8DatatypeEii,"axG",@progbits,_ZNK3MPI4Comm5IrecvEPviRKNS_8DatatypeEii,comdat
	.align 2
	.p2align 4
	.weak	_ZNK3MPI4Comm5IrecvEPviRKNS_8DatatypeEii
	.type	_ZNK3MPI4Comm5IrecvEPviRKNS_8DatatypeEii, @function
_ZNK3MPI4Comm5IrecvEPviRKNS_8DatatypeEii:
.LFB4907:
	.cfi_startproc
	endbr64
	pushq	%r12
	.cfi_def_cfa_offset 16
	.cfi_offset 12, -16
	movq	%rsi, %r10
	movq	%rdi, %r12
	movl	%ecx, %esi
	movq	%rdx, %rdi
	movl	%r9d, %ecx
	subq	$24, %rsp
	.cfi_def_cfa_offset 40
	movq	8(%r8), %rdx
	movq	8(%r10), %r9
	movq	%fs:40, %rax
	movq	%rax, 16(%rsp)
	xorl	%eax, %eax
	leaq	8(%rsp), %rax
	pushq	%rax
	.cfi_def_cfa_offset 48
	movl	48(%rsp), %r8d
	call	MPI_Irecv@PLT
	leaq	16+_ZTVN3MPI7RequestE(%rip), %rax
	movq	%rax, (%r12)
	movq	16(%rsp), %rax
	movq	%rax, 8(%r12)
	popq	%rax
	.cfi_def_cfa_offset 40
	popq	%rdx
	.cfi_def_cfa_offset 32
	movq	8(%rsp), %rax
	xorq	%fs:40, %rax
	jne	.L179
	addq	$16, %rsp
	.cfi_remember_state
	.cfi_def_cfa_offset 16
	movq	%r12, %rax
	popq	%r12
	.cfi_def_cfa_offset 8
	ret
.L179:
	.cfi_restore_state
	call	__stack_chk_fail@PLT
	.cfi_endproc
.LFE4907:
	.size	_ZNK3MPI4Comm5IrecvEPviRKNS_8DatatypeEii, .-_ZNK3MPI4Comm5IrecvEPviRKNS_8DatatypeEii
	.text
	.p2align 4
	.type	_ZN17ParticleSimulator18ReallocatableArrayI5EPI_tE12ReallocInnerEi._omp_fn.0, @function
_ZN17ParticleSimulator18ReallocatableArrayI5EPI_tE12ReallocInnerEi._omp_fn.0:
.LFB15813:
	.cfi_startproc
	endbr64
	pushq	%rbp
	.cfi_def_cfa_offset 16
	.cfi_offset 6, -16
	pushq	%rbx
	.cfi_def_cfa_offset 24
	.cfi_offset 3, -24
	movq	%rdi, %rbx
	subq	$8, %rsp
	.cfi_def_cfa_offset 32
	call	omp_get_num_threads@PLT
	movl	%eax, %ebp
	call	omp_get_thread_num@PLT
	movl	%eax, %ecx
	movq	(%rbx), %rax
	movl	8(%rax), %eax
	cltd
	idivl	%ebp
	cmpl	%edx, %ecx
	jl	.L181
.L184:
	imull	%eax, %ecx
	addl	%ecx, %edx
	leal	(%rax,%rdx), %ecx
	cmpl	%ecx, %edx
	jge	.L186
	movslq	%edx, %rdx
	subl	$1, %eax
	movq	8(%rbx), %rdi
	leaq	(%rdx,%rdx,2), %rcx
	leaq	(%rdx,%rcx,4), %rsi
	addq	%rax, %rdx
	leaq	(%rdx,%rdx,2), %rax
	salq	$3, %rsi
	leaq	(%rdx,%rax,4), %rax
	leaq	(%rdi,%rsi), %rcx
	addq	16(%rbx), %rsi
	leaq	104(%rdi,%rax,8), %rdx
	.p2align 4,,10
	.p2align 3
.L183:
	vmovsd	(%rcx), %xmm0
	movq	80(%rcx), %rax
	addq	$104, %rcx
	addq	$104, %rsi
	vmovsd	%xmm0, -104(%rsi)
	vmovsd	-96(%rcx), %xmm0
	vmovsd	%xmm0, -96(%rsi)
	vmovsd	-88(%rcx), %xmm0
	vmovsd	%xmm0, -88(%rsi)
	vmovsd	-80(%rcx), %xmm0
	vmovsd	%xmm0, -80(%rsi)
	vmovsd	-72(%rcx), %xmm0
	vmovsd	%xmm0, -72(%rsi)
	vmovsd	-64(%rcx), %xmm0
	vmovsd	%xmm0, -64(%rsi)
	vmovsd	-56(%rcx), %xmm0
	vmovsd	%xmm0, -56(%rsi)
	vmovsd	-48(%rcx), %xmm0
	vmovsd	%xmm0, -48(%rsi)
	vmovsd	-40(%rcx), %xmm0
	vmovsd	%xmm0, -40(%rsi)
	vmovsd	-32(%rcx), %xmm0
	movq	%rax, -24(%rsi)
	vmovsd	%xmm0, -32(%rsi)
	vmovupd	-16(%rcx), %xmm1
	vmovups	%xmm1, -16(%rsi)
	cmpq	%rdx, %rcx
	jne	.L183
.L186:
	addq	$8, %rsp
	.cfi_remember_state
	.cfi_def_cfa_offset 24
	popq	%rbx
	.cfi_def_cfa_offset 16
	popq	%rbp
	.cfi_def_cfa_offset 8
	ret
	.p2align 4,,10
	.p2align 3
.L181:
	.cfi_restore_state
	addl	$1, %eax
	xorl	%edx, %edx
	jmp	.L184
	.cfi_endproc
.LFE15813:
	.size	_ZN17ParticleSimulator18ReallocatableArrayI5EPI_tE12ReallocInnerEi._omp_fn.0, .-_ZN17ParticleSimulator18ReallocatableArrayI5EPI_tE12ReallocInnerEi._omp_fn.0
	.p2align 4
	.type	_ZN17ParticleSimulator18ReallocatableArrayI5EPI_tE12ReallocInnerEi._omp_fn.1, @function
_ZN17ParticleSimulator18ReallocatableArrayI5EPI_tE12ReallocInnerEi._omp_fn.1:
.LFB15814:
	.cfi_startproc
	endbr64
	pushq	%r12
	.cfi_def_cfa_offset 16
	.cfi_offset 12, -16
	pushq	%rbp
	.cfi_def_cfa_offset 24
	.cfi_offset 6, -24
	pushq	%rbx
	.cfi_def_cfa_offset 32
	.cfi_offset 3, -32
	movq	(%rdi), %r12
	movq	8(%rdi), %rbp
	call	omp_get_thread_num@PLT
	movl	%eax, %ebx
	call	omp_get_num_threads@PLT
	movl	%ebx, %r9d
	movl	%eax, %r8d
	movl	12(%r12), %eax
	cltd
	idivl	%r8d
	movl	%eax, %r8d
	imull	%ebx, %r8d
	cmpl	%ebx, %edx
	cmovle	%edx, %r9d
	addl	$1, %ebx
	addl	%r8d, %r9d
	movslq	%r9d, %rcx
	leaq	(%rcx,%rcx,2), %rsi
	leaq	(%rcx,%rsi,4), %rsi
	salq	$3, %rsi
	cmpl	%edx, %ebx
	cmovg	%edx, %ebx
	addl	%r8d, %eax
	leaq	0(%rbp,%rsi), %rdi
	addq	(%r12), %rsi
	addl	%eax, %ebx
	subl	%r9d, %ebx
	movslq	%ebx, %rax
	popq	%rbx
	.cfi_def_cfa_offset 24
	popq	%rbp
	.cfi_def_cfa_offset 16
	leaq	(%rax,%rax,2), %rdx
	popq	%r12
	.cfi_def_cfa_offset 8
	leaq	(%rax,%rdx,4), %rdx
	salq	$3, %rdx
	jmp	memcpy@PLT
	.cfi_endproc
.LFE15814:
	.size	_ZN17ParticleSimulator18ReallocatableArrayI5EPI_tE12ReallocInnerEi._omp_fn.1, .-_ZN17ParticleSimulator18ReallocatableArrayI5EPI_tE12ReallocInnerEi._omp_fn.1
	.p2align 4
	.type	_ZN17ParticleSimulator18ReallocatableArrayI5EPI_tE12ReallocInnerEi._omp_fn.2, @function
_ZN17ParticleSimulator18ReallocatableArrayI5EPI_tE12ReallocInnerEi._omp_fn.2:
.LFB15815:
	.cfi_startproc
	endbr64
	pushq	%r12
	.cfi_def_cfa_offset 16
	.cfi_offset 12, -16
	pushq	%rbp
	.cfi_def_cfa_offset 24
	.cfi_offset 6, -24
	pushq	%rbx
	.cfi_def_cfa_offset 32
	.cfi_offset 3, -32
	movq	(%rdi), %r12
	movq	8(%rdi), %rbp
	call	omp_get_thread_num@PLT
	movl	%eax, %ebx
	call	omp_get_num_threads@PLT
	movl	%ebx, %r9d
	movl	%eax, %r8d
	movl	8(%r12), %eax
	cltd
	idivl	%r8d
	movq	(%r12), %r8
	movl	%eax, %edi
	imull	%ebx, %edi
	cmpl	%ebx, %edx
	cmovle	%edx, %r9d
	addl	$1, %ebx
	addl	%edi, %r9d
	movslq	%r9d, %rcx
	leaq	(%rcx,%rcx,2), %rsi
	leaq	(%rcx,%rsi,4), %rsi
	salq	$3, %rsi
	addq	%rsi, %r8
	cmpl	%edx, %ebx
	cmovg	%edx, %ebx
	addl	%edi, %eax
	addq	%rbp, %rsi
	movq	%r8, %rdi
	addl	%eax, %ebx
	subl	%r9d, %ebx
	movslq	%ebx, %rax
	popq	%rbx
	.cfi_def_cfa_offset 24
	popq	%rbp
	.cfi_def_cfa_offset 16
	leaq	(%rax,%rax,2), %rdx
	popq	%r12
	.cfi_def_cfa_offset 8
	leaq	(%rax,%rdx,4), %rdx
	salq	$3, %rdx
	jmp	memcpy@PLT
	.cfi_endproc
.LFE15815:
	.size	_ZN17ParticleSimulator18ReallocatableArrayI5EPI_tE12ReallocInnerEi._omp_fn.2, .-_ZN17ParticleSimulator18ReallocatableArrayI5EPI_tE12ReallocInnerEi._omp_fn.2
	.section	.text._ZN17ParticleSimulator12TreeForForceINS_24SEARCH_MODE_LONG_SCATTERE7Force_t5EPI_tS3_16MyMomentMonopoleS4_13MySPJMonopoleLNS_18CALC_DISTANCE_TYPEE1EE24setParticleLocalTreeImplINS_14ParticleSystemI4FP_tEEEEvRKT_b._omp_fn.0,"axG",@progbits,_ZN17ParticleSimulator12TreeForForceINS_24SEARCH_MODE_LONG_SCATTERE7Force_t5EPI_tS3_16MyMomentMonopoleS4_13MySPJMonopoleLNS_18CALC_DISTANCE_TYPEE1EE24setParticleLocalTreeImplINS_14ParticleSystemI4FP_tEEEEvRKT_b,comdat
	.p2align 4
	.type	_ZN17ParticleSimulator12TreeForForceINS_24SEARCH_MODE_LONG_SCATTERE7Force_t5EPI_tS3_16MyMomentMonopoleS4_13MySPJMonopoleLNS_18CALC_DISTANCE_TYPEE1EE24setParticleLocalTreeImplINS_14ParticleSystemI4FP_tEEEEvRKT_b._omp_fn.0, @function
_ZN17ParticleSimulator12TreeForForceINS_24SEARCH_MODE_LONG_SCATTERE7Force_t5EPI_tS3_16MyMomentMonopoleS4_13MySPJMonopoleLNS_18CALC_DISTANCE_TYPEE1EE24setParticleLocalTreeImplINS_14ParticleSystemI4FP_tEEEEvRKT_b._omp_fn.0:
.LFB15816:
	.cfi_startproc
	endbr64
	pushq	%rbp
	.cfi_def_cfa_offset 16
	.cfi_offset 6, -16
	movq	%rsp, %rbp
	.cfi_def_cfa_register 6
	pushq	%r15
	pushq	%r14
	pushq	%r13
	.cfi_offset 15, -24
	.cfi_offset 14, -32
	.cfi_offset 13, -40
	movq	%rdi, %r13
	pushq	%r12
	pushq	%rbx
	subq	$24, %rsp
	.cfi_offset 12, -48
	.cfi_offset 3, -56
	movl	28(%rdi), %eax
	movzbl	32(%rdi), %r12d
	movq	(%rdi), %r14
	movl	%eax, 8(%rsp)
	movl	24(%rdi), %eax
	movl	%eax, 12(%rsp)
	call	omp_get_thread_num@PLT
	movq	16(%r13), %rcx
	vmovapd	.LC1(%rip), %ymm0
	cltq
	leaq	(%rax,%rax,2), %rbx
	salq	$4, %rbx
	addq	(%rcx), %rbx
	vmovups	%xmm0, (%rbx)
	vextractf128	$0x1, %ymm0, 16(%rbx)
	vmovsd	.LC2(%rip), %xmm0
	vmovsd	%xmm0, 32(%rbx)
	vmovsd	%xmm0, 40(%rbx)
	vzeroupper
	call	omp_get_num_threads@PLT
	movl	%eax, %r15d
	call	omp_get_thread_num@PLT
	movl	%eax, %ecx
	movl	12(%rsp), %eax
	cltd
	idivl	%r15d
	testb	%r12b, %r12b
	jne	.L193
	cmpl	%ecx, %edx
	jg	.L194
	imull	%eax, %ecx
	addl	%ecx, %edx
	leal	(%rax,%rdx), %ecx
	cmpl	%ecx, %edx
	jge	.L197
.L195:
	movq	8(%r13), %rcx
	movslq	8(%rsp), %r13
	movslq	%edx, %rdx
	subl	$1, %eax
	movq	1240(%r14), %rdi
	movq	456(%rcx), %r8
	addq	%rdx, %r13
	imulq	$184, %rdx, %rcx
	addq	%rax, %rdx
	imulq	$184, %rdx, %rdx
	leaq	0(%r13,%r13,2), %rsi
	leaq	0(%r13,%rsi,4), %rsi
	salq	$3, %rsi
	addq	%r8, %rcx
	addq	%rsi, %rdi
	leaq	184(%r8,%rdx), %rdx
	addq	1304(%r14), %rsi
	.p2align 4,,10
	.p2align 3
.L196:
	vmovsd	(%rcx), %xmm0
	movq	104(%rcx), %rax
	addq	$104, %rdi
	addq	$104, %rsi
	addq	$184, %rcx
	vmovsd	%xmm0, -104(%rdi)
	vmovsd	-176(%rcx), %xmm0
	vmovsd	%xmm0, -96(%rdi)
	vmovsd	-168(%rcx), %xmm0
	vmovsd	%xmm0, -88(%rdi)
	vmovsd	-160(%rcx), %xmm0
	vmovsd	%xmm0, -80(%rdi)
	vmovsd	-152(%rcx), %xmm0
	vmovsd	%xmm0, -72(%rdi)
	vmovsd	-144(%rcx), %xmm0
	vmovsd	%xmm0, -64(%rdi)
	vmovsd	-136(%rcx), %xmm2
	vmovsd	%xmm2, -56(%rdi)
	vmovsd	-8(%rcx), %xmm1
	vmovsd	%xmm1, -8(%rdi)
	vmovsd	-104(%rcx), %xmm0
	vmovsd	%xmm0, -48(%rdi)
	vmovsd	-96(%rcx), %xmm0
	vmovsd	%xmm0, -40(%rdi)
	vmovsd	-88(%rcx), %xmm0
	movq	%rax, -24(%rdi)
	vmovsd	%xmm0, -32(%rdi)
	vmovsd	-40(%rcx), %xmm0
	vmovsd	%xmm0, -16(%rdi)
	vmovsd	-184(%rcx), %xmm3
	vmovsd	%xmm3, -104(%rsi)
	vmovsd	-176(%rcx), %xmm3
	vmovsd	%xmm3, -96(%rsi)
	vmovsd	-168(%rcx), %xmm3
	vmovsd	%xmm3, -88(%rsi)
	vmovsd	-160(%rcx), %xmm3
	vmovsd	%xmm3, -80(%rsi)
	vmovsd	-152(%rcx), %xmm3
	vmovsd	%xmm3, -72(%rsi)
	vmovsd	-144(%rcx), %xmm3
	vmovsd	%xmm2, -56(%rsi)
	vmovsd	%xmm3, -64(%rsi)
	vmovsd	%xmm1, -8(%rsi)
	vmovsd	-104(%rcx), %xmm1
	vmovsd	%xmm1, -48(%rsi)
	vmovsd	-96(%rcx), %xmm1
	vmovsd	%xmm1, -40(%rsi)
	vmovsd	-88(%rcx), %xmm1
	vmovsd	%xmm0, -16(%rsi)
	vmovsd	%xmm1, -32(%rsi)
	vmovupd	-160(%rcx), %xmm1
	vmovsd	24(%rbx), %xmm4
	vmovupd	-152(%rcx), %xmm2
	vminpd	(%rbx), %xmm1, %xmm1
	movq	%rax, -24(%rsi)
	vmovsd	-144(%rcx), %xmm0
	vmaxsd	-160(%rcx), %xmm4, %xmm3
	vmaxpd	32(%rbx), %xmm2, %xmm2
	vminsd	16(%rbx), %xmm0, %xmm0
	vmovups	%xmm1, (%rbx)
	vmovsd	%xmm3, 24(%rbx)
	vmovups	%xmm2, 32(%rbx)
	vmovsd	%xmm0, 16(%rbx)
	cmpq	%rdx, %rcx
	jne	.L196
.L197:
	addq	$24, %rsp
	popq	%rbx
	popq	%r12
	popq	%r13
	popq	%r14
	popq	%r15
	popq	%rbp
	.cfi_remember_state
	.cfi_def_cfa 7, 8
	jmp	GOMP_barrier@PLT
	.p2align 4,,10
	.p2align 3
.L193:
	.cfi_restore_state
	cmpl	%ecx, %edx
	jg	.L199
	imull	%eax, %ecx
	addl	%ecx, %edx
	leal	(%rax,%rdx), %ecx
	cmpl	%ecx, %edx
	jge	.L197
.L205:
	movq	8(%r13), %rsi
	movslq	%edx, %rdx
	subl	$1, %eax
	movq	1240(%r14), %r8
	imulq	$184, %rdx, %rcx
	addq	456(%rsi), %rcx
	leaq	(%rdx,%rdx,2), %rsi
	leaq	(%rdx,%rsi,4), %rdi
	addq	%rax, %rdx
	leaq	(%rdx,%rdx,2), %rax
	salq	$3, %rdi
	leaq	(%rdx,%rax,4), %rax
	leaq	(%r8,%rdi), %rsi
	addq	1304(%r14), %rdi
	leaq	104(%r8,%rax,8), %rdx
	.p2align 4,,10
	.p2align 3
.L200:
	vmovsd	(%rcx), %xmm0
	movq	104(%rcx), %rax
	addq	$104, %rsi
	addq	$104, %rdi
	addq	$184, %rcx
	vmovsd	%xmm0, -104(%rsi)
	vmovsd	-176(%rcx), %xmm0
	vmovsd	%xmm0, -96(%rsi)
	vmovsd	-168(%rcx), %xmm0
	vmovsd	%xmm0, -88(%rsi)
	vmovsd	-160(%rcx), %xmm0
	vmovsd	%xmm0, -80(%rsi)
	vmovsd	-152(%rcx), %xmm0
	vmovsd	%xmm0, -72(%rsi)
	vmovsd	-144(%rcx), %xmm0
	vmovsd	%xmm0, -64(%rsi)
	vmovsd	-136(%rcx), %xmm2
	vmovsd	%xmm2, -56(%rsi)
	vmovsd	-8(%rcx), %xmm1
	vmovsd	%xmm1, -8(%rsi)
	vmovsd	-104(%rcx), %xmm0
	vmovsd	%xmm0, -48(%rsi)
	vmovsd	-96(%rcx), %xmm0
	vmovsd	%xmm0, -40(%rsi)
	vmovsd	-88(%rcx), %xmm0
	movq	%rax, -24(%rsi)
	vmovsd	%xmm0, -32(%rsi)
	vmovsd	-40(%rcx), %xmm0
	vmovsd	%xmm0, -16(%rsi)
	vmovsd	-184(%rcx), %xmm3
	vmovsd	%xmm3, -104(%rdi)
	vmovsd	-176(%rcx), %xmm3
	vmovsd	%xmm3, -96(%rdi)
	vmovsd	-168(%rcx), %xmm3
	vmovsd	%xmm3, -88(%rdi)
	vmovsd	-160(%rcx), %xmm3
	vmovsd	%xmm3, -80(%rdi)
	vmovsd	-152(%rcx), %xmm3
	vmovsd	%xmm3, -72(%rdi)
	vmovsd	-144(%rcx), %xmm3
	vmovsd	%xmm2, -56(%rdi)
	vmovsd	%xmm3, -64(%rdi)
	vmovsd	%xmm1, -8(%rdi)
	vmovsd	-104(%rcx), %xmm1
	vmovsd	%xmm1, -48(%rdi)
	vmovsd	-96(%rcx), %xmm1
	vmovsd	%xmm1, -40(%rdi)
	vmovsd	-88(%rcx), %xmm1
	vmovsd	%xmm0, -16(%rdi)
	vmovsd	%xmm1, -32(%rdi)
	vmovupd	-160(%rcx), %xmm1
	vmovsd	24(%rbx), %xmm5
	vmovupd	-152(%rcx), %xmm2
	vminpd	(%rbx), %xmm1, %xmm1
	movq	%rax, -24(%rdi)
	vmovsd	-144(%rcx), %xmm0
	vmaxsd	-160(%rcx), %xmm5, %xmm3
	vmaxpd	32(%rbx), %xmm2, %xmm2
	vminsd	16(%rbx), %xmm0, %xmm0
	vmovups	%xmm1, (%rbx)
	vmovsd	%xmm3, 24(%rbx)
	vmovups	%xmm2, 32(%rbx)
	vmovsd	%xmm0, 16(%rbx)
	cmpq	%rdx, %rsi
	jne	.L200
	jmp	.L197
	.p2align 4,,10
	.p2align 3
.L199:
	addl	$1, %eax
	xorl	%edx, %edx
	imull	%eax, %ecx
	addl	%ecx, %edx
	leal	(%rax,%rdx), %ecx
	cmpl	%ecx, %edx
	jge	.L197
	jmp	.L205
	.p2align 4,,10
	.p2align 3
.L194:
	addl	$1, %eax
	xorl	%edx, %edx
	imull	%eax, %ecx
	addl	%ecx, %edx
	leal	(%rax,%rdx), %ecx
	cmpl	%ecx, %edx
	jl	.L195
	jmp	.L197
	.cfi_endproc
.LFE15816:
	.size	_ZN17ParticleSimulator12TreeForForceINS_24SEARCH_MODE_LONG_SCATTERE7Force_t5EPI_tS3_16MyMomentMonopoleS4_13MySPJMonopoleLNS_18CALC_DISTANCE_TYPEE1EE24setParticleLocalTreeImplINS_14ParticleSystemI4FP_tEEEEvRKT_b._omp_fn.0, .-_ZN17ParticleSimulator12TreeForForceINS_24SEARCH_MODE_LONG_SCATTERE7Force_t5EPI_tS3_16MyMomentMonopoleS4_13MySPJMonopoleLNS_18CALC_DISTANCE_TYPEE1EE24setParticleLocalTreeImplINS_14ParticleSystemI4FP_tEEEEvRKT_b._omp_fn.0
	.section	.text._ZN17ParticleSimulator18ReallocatableArrayINS_8TreeCellI16MyMomentMonopoleNS_8GeometryINS_20TagGeometrySizeInOutEEEEEE12ReallocInnerEi._omp_fn.1,"axG",@progbits,_ZN17ParticleSimulator8LinkCellINS_8TreeCellI16MyMomentMonopoleNS_8GeometryINS_20TagGeometrySizeInOutEEEEEEEvRNS_18ReallocatableArrayIT_EEPiPKNS_12TreeParticleERiiiRKNS_9MortonKeyE,comdat
	.p2align 4
	.type	_ZN17ParticleSimulator18ReallocatableArrayINS_8TreeCellI16MyMomentMonopoleNS_8GeometryINS_20TagGeometrySizeInOutEEEEEE12ReallocInnerEi._omp_fn.1, @function
_ZN17ParticleSimulator18ReallocatableArrayINS_8TreeCellI16MyMomentMonopoleNS_8GeometryINS_20TagGeometrySizeInOutEEEEEE12ReallocInnerEi._omp_fn.1:
.LFB15821:
	.cfi_startproc
	endbr64
	pushq	%r12
	.cfi_def_cfa_offset 16
	.cfi_offset 12, -16
	pushq	%rbp
	.cfi_def_cfa_offset 24
	.cfi_offset 6, -24
	pushq	%rbx
	.cfi_def_cfa_offset 32
	.cfi_offset 3, -32
	movq	(%rdi), %rbp
	movq	8(%rdi), %r12
	call	omp_get_thread_num@PLT
	movl	%eax, %ebx
	call	omp_get_num_threads@PLT
	movl	%eax, %r8d
	movl	12(%rbp), %eax
	cltd
	idivl	%r8d
	movl	%ebx, %r8d
	movl	%eax, %ecx
	imull	%ebx, %ecx
	cmpl	%ebx, %edx
	cmovle	%edx, %r8d
	addl	$1, %ebx
	addl	%ecx, %r8d
	movslq	%r8d, %rdi
	leaq	0(,%rdi,8), %rsi
	subq	%rdi, %rsi
	salq	$5, %rsi
	cmpl	%edx, %ebx
	cmovg	%edx, %ebx
	addl	%ecx, %eax
	leaq	(%r12,%rsi), %rdi
	addq	0(%rbp), %rsi
	addl	%eax, %ebx
	subl	%r8d, %ebx
	movslq	%ebx, %rbx
	leaq	0(,%rbx,8), %rdx
	subq	%rbx, %rdx
	popq	%rbx
	.cfi_def_cfa_offset 24
	popq	%rbp
	.cfi_def_cfa_offset 16
	salq	$5, %rdx
	popq	%r12
	.cfi_def_cfa_offset 8
	jmp	memcpy@PLT
	.cfi_endproc
.LFE15821:
	.size	_ZN17ParticleSimulator18ReallocatableArrayINS_8TreeCellI16MyMomentMonopoleNS_8GeometryINS_20TagGeometrySizeInOutEEEEEE12ReallocInnerEi._omp_fn.1, .-_ZN17ParticleSimulator18ReallocatableArrayINS_8TreeCellI16MyMomentMonopoleNS_8GeometryINS_20TagGeometrySizeInOutEEEEEE12ReallocInnerEi._omp_fn.1
	.section	.text._ZN17ParticleSimulator18ReallocatableArrayINS_8TreeCellI16MyMomentMonopoleNS_8GeometryINS_20TagGeometrySizeInOutEEEEEE12ReallocInnerEi._omp_fn.2,"axG",@progbits,_ZN17ParticleSimulator8LinkCellINS_8TreeCellI16MyMomentMonopoleNS_8GeometryINS_20TagGeometrySizeInOutEEEEEEEvRNS_18ReallocatableArrayIT_EEPiPKNS_12TreeParticleERiiiRKNS_9MortonKeyE,comdat
	.p2align 4
	.type	_ZN17ParticleSimulator18ReallocatableArrayINS_8TreeCellI16MyMomentMonopoleNS_8GeometryINS_20TagGeometrySizeInOutEEEEEE12ReallocInnerEi._omp_fn.2, @function
_ZN17ParticleSimulator18ReallocatableArrayINS_8TreeCellI16MyMomentMonopoleNS_8GeometryINS_20TagGeometrySizeInOutEEEEEE12ReallocInnerEi._omp_fn.2:
.LFB15822:
	.cfi_startproc
	endbr64
	pushq	%r12
	.cfi_def_cfa_offset 16
	.cfi_offset 12, -16
	pushq	%rbp
	.cfi_def_cfa_offset 24
	.cfi_offset 6, -24
	pushq	%rbx
	.cfi_def_cfa_offset 32
	.cfi_offset 3, -32
	movq	(%rdi), %r12
	movq	8(%rdi), %rbp
	call	omp_get_thread_num@PLT
	movl	%eax, %ebx
	call	omp_get_num_threads@PLT
	movl	%eax, %r8d
	movl	8(%r12), %eax
	cltd
	idivl	%r8d
	movl	%ebx, %r8d
	movl	%eax, %ecx
	imull	%ebx, %ecx
	cmpl	%ebx, %edx
	cmovle	%edx, %r8d
	addl	$1, %ebx
	addl	%ecx, %r8d
	movslq	%r8d, %rdi
	leaq	0(,%rdi,8), %rsi
	subq	%rdi, %rsi
	movq	(%r12), %rdi
	salq	$5, %rsi
	addq	%rsi, %rdi
	cmpl	%edx, %ebx
	cmovg	%edx, %ebx
	addl	%ecx, %eax
	addq	%rbp, %rsi
	addl	%eax, %ebx
	subl	%r8d, %ebx
	movslq	%ebx, %rbx
	leaq	0(,%rbx,8), %rdx
	subq	%rbx, %rdx
	popq	%rbx
	.cfi_def_cfa_offset 24
	popq	%rbp
	.cfi_def_cfa_offset 16
	salq	$5, %rdx
	popq	%r12
	.cfi_def_cfa_offset 8
	jmp	memcpy@PLT
	.cfi_endproc
.LFE15822:
	.size	_ZN17ParticleSimulator18ReallocatableArrayINS_8TreeCellI16MyMomentMonopoleNS_8GeometryINS_20TagGeometrySizeInOutEEEEEE12ReallocInnerEi._omp_fn.2, .-_ZN17ParticleSimulator18ReallocatableArrayINS_8TreeCellI16MyMomentMonopoleNS_8GeometryINS_20TagGeometrySizeInOutEEEEEE12ReallocInnerEi._omp_fn.2
	.text
	.p2align 4
	.type	_ZN17ParticleSimulator18ReallocatableArrayI13MySPJMonopoleE12ReallocInnerEi._omp_fn.0, @function
_ZN17ParticleSimulator18ReallocatableArrayI13MySPJMonopoleE12ReallocInnerEi._omp_fn.0:
.LFB15824:
	.cfi_startproc
	endbr64
	pushq	%rbp
	.cfi_def_cfa_offset 16
	.cfi_offset 6, -16
	movq	%rsp, %rbp
	.cfi_def_cfa_register 6
	pushq	%r12
	.cfi_offset 12, -24
	movq	%rdi, %r12
	pushq	%rbx
	andq	$-32, %rsp
	.cfi_offset 3, -32
	call	omp_get_num_threads@PLT
	movl	%eax, %ebx
	call	omp_get_thread_num@PLT
	movl	%eax, %ecx
	movq	(%r12), %rax
	movl	8(%rax), %eax
	cltd
	idivl	%ebx
	cmpl	%edx, %ecx
	jl	.L211
.L218:
	imull	%eax, %ecx
	addl	%ecx, %edx
	leal	(%rax,%rdx), %r10d
	cmpl	%r10d, %edx
	jge	.L230
	movslq	%edx, %r11
	movq	8(%r12), %rdi
	movq	16(%r12), %r8
	leal	-1(%rax), %ebx
	leaq	(%r11,%r11,2), %rcx
	leaq	(%r11,%rcx,4), %rsi
	salq	$3, %rsi
	leaq	416(%rsi), %r9
	leaq	(%rdi,%rsi), %rcx
	addq	%r8, %rsi
	leaq	(%r8,%r9), %r12
	cmpq	%r12, %rcx
	setnb	%r12b
	addq	%rdi, %r9
	cmpq	%r9, %rsi
	setnb	%r9b
	orb	%r9b, %r12b
	je	.L213
	cmpl	$2, %ebx
	jbe	.L213
	movl	%eax, %r9d
	shrl	$2, %r9d
	leaq	(%r9,%r9,2), %r11
	leaq	(%r9,%r11,4), %r9
	salq	$5, %r9
	addq	%rcx, %r9
	.p2align 4,,10
	.p2align 3
.L214:
	vmovupd	(%rcx), %xmm1
	vmovupd	32(%rcx), %xmm2
	addq	$416, %rcx
	addq	$416, %rsi
	vmovupd	-352(%rcx), %xmm3
	vmovupd	-320(%rcx), %xmm4
	vmovupd	-288(%rcx), %xmm5
	vmovupd	-32(%rcx), %xmm0
	vmovupd	-256(%rcx), %xmm6
	vinsertf128	$0x1, -272(%rcx), %ymm5, %ymm8
	vinsertf128	$0x1, -240(%rcx), %ymm6, %ymm7
	vinsertf128	$0x1, -304(%rcx), %ymm4, %ymm9
	vinsertf128	$0x1, -16(%rcx), %ymm0, %ymm0
	vinsertf128	$0x1, -400(%rcx), %ymm1, %ymm12
	vinsertf128	$0x1, -368(%rcx), %ymm2, %ymm11
	vmovupd	-224(%rcx), %xmm1
	vmovupd	-192(%rcx), %xmm2
	vinsertf128	$0x1, -208(%rcx), %ymm1, %ymm6
	vinsertf128	$0x1, -176(%rcx), %ymm2, %ymm5
	vmovupd	-128(%rcx), %xmm1
	vinsertf128	$0x1, -336(%rcx), %ymm3, %ymm10
	vmovupd	-96(%rcx), %xmm2
	vmovupd	-160(%rcx), %xmm3
	vinsertf128	$0x1, -80(%rcx), %ymm2, %ymm2
	vinsertf128	$0x1, -144(%rcx), %ymm3, %ymm4
	vinsertf128	$0x1, -112(%rcx), %ymm1, %ymm3
	vmovupd	-64(%rcx), %xmm1
	vinsertf128	$0x1, -48(%rcx), %ymm1, %ymm1
	vmovups	%xmm12, -416(%rsi)
	vextractf128	$0x1, %ymm12, -400(%rsi)
	vmovups	%xmm11, -384(%rsi)
	vextractf128	$0x1, %ymm11, -368(%rsi)
	vextractf128	$0x1, %ymm10, -336(%rsi)
	vmovups	%xmm10, -352(%rsi)
	vmovups	%xmm9, -320(%rsi)
	vextractf128	$0x1, %ymm3, -112(%rsi)
	vextractf128	$0x1, %ymm9, -304(%rsi)
	vextractf128	$0x1, %ymm8, -272(%rsi)
	vmovups	%xmm8, -288(%rsi)
	vextractf128	$0x1, %ymm2, -80(%rsi)
	vextractf128	$0x1, %ymm7, -240(%rsi)
	vextractf128	$0x1, %ymm6, -208(%rsi)
	vmovups	%xmm7, -256(%rsi)
	vextractf128	$0x1, %ymm5, -176(%rsi)
	vextractf128	$0x1, %ymm4, -144(%rsi)
	vextractf128	$0x1, %ymm1, -48(%rsi)
	vmovups	%xmm6, -224(%rsi)
	vextractf128	$0x1, %ymm0, -16(%rsi)
	vmovups	%xmm5, -192(%rsi)
	vmovups	%xmm4, -160(%rsi)
	vmovups	%xmm3, -128(%rsi)
	vmovups	%xmm2, -96(%rsi)
	vmovups	%xmm1, -64(%rsi)
	vmovups	%xmm0, -32(%rsi)
	cmpq	%r9, %rcx
	jne	.L214
	movl	%eax, %ecx
	andl	$-4, %ecx
	addl	%ecx, %edx
	cmpl	%ecx, %eax
	je	.L229
	movslq	%edx, %rax
	leaq	(%rax,%rax,2), %rcx
	leaq	(%rax,%rcx,4), %rax
	leal	1(%rdx), %ecx
	salq	$3, %rax
	leaq	(%rdi,%rax), %r9
	leaq	(%r8,%rax), %rsi
	vmovsd	(%r9), %xmm0
	vmovsd	%xmm0, (%rsi)
	vmovsd	8(%r9), %xmm0
	vmovsd	%xmm0, 8(%rsi)
	vmovsd	16(%r9), %xmm0
	vmovsd	%xmm0, 16(%rsi)
	vmovsd	24(%r9), %xmm0
	vmovsd	%xmm0, 24(%rsi)
	vmovsd	32(%r9), %xmm0
	vmovsd	%xmm0, 32(%rsi)
	vmovsd	40(%r9), %xmm0
	vmovsd	%xmm0, 40(%rsi)
	vmovsd	48(%r9), %xmm0
	vmovsd	%xmm0, 48(%rsi)
	vmovsd	80(%r9), %xmm0
	vmovsd	%xmm0, 80(%rsi)
	vmovsd	88(%r9), %xmm0
	vmovsd	%xmm0, 88(%rsi)
	vmovsd	96(%r9), %xmm0
	vmovsd	%xmm0, 96(%rsi)
	vmovsd	56(%r9), %xmm0
	vmovsd	%xmm0, 56(%rsi)
	vmovsd	64(%r9), %xmm0
	vmovsd	%xmm0, 64(%rsi)
	vmovsd	72(%r9), %xmm0
	vmovsd	%xmm0, 72(%rsi)
	cmpl	%ecx, %r10d
	jle	.L229
	leaq	104(%rax), %rsi
	addl	$2, %edx
	leaq	(%rdi,%rsi), %r9
	addq	%r8, %rsi
	vmovsd	(%r9), %xmm0
	vmovsd	%xmm0, (%rsi)
	vmovsd	8(%r9), %xmm0
	vmovsd	%xmm0, 8(%rsi)
	vmovsd	16(%r9), %xmm0
	vmovsd	%xmm0, 16(%rsi)
	vmovsd	24(%r9), %xmm0
	vmovsd	%xmm0, 24(%rsi)
	vmovsd	32(%r9), %xmm0
	vmovsd	%xmm0, 32(%rsi)
	vmovsd	40(%r9), %xmm0
	vmovsd	%xmm0, 40(%rsi)
	vmovsd	48(%r9), %xmm0
	vmovsd	%xmm0, 48(%rsi)
	vmovsd	80(%r9), %xmm0
	vmovsd	%xmm0, 80(%rsi)
	vmovsd	88(%r9), %xmm0
	vmovsd	%xmm0, 88(%rsi)
	vmovsd	96(%r9), %xmm0
	vmovsd	%xmm0, 96(%rsi)
	vmovsd	56(%r9), %xmm0
	vmovsd	%xmm0, 56(%rsi)
	vmovsd	64(%r9), %xmm0
	vmovsd	%xmm0, 64(%rsi)
	vmovsd	72(%r9), %xmm0
	vmovsd	%xmm0, 72(%rsi)
	cmpl	%edx, %r10d
	jle	.L229
	addq	$208, %rax
	addq	%rax, %rdi
	addq	%r8, %rax
	vmovsd	(%rdi), %xmm0
	vmovsd	%xmm0, (%rax)
	vmovsd	8(%rdi), %xmm0
	vmovsd	%xmm0, 8(%rax)
	vmovsd	16(%rdi), %xmm0
	vmovsd	%xmm0, 16(%rax)
	vmovsd	24(%rdi), %xmm0
	vmovsd	%xmm0, 24(%rax)
	vmovsd	32(%rdi), %xmm0
	vmovsd	%xmm0, 32(%rax)
	vmovsd	40(%rdi), %xmm0
	vmovsd	%xmm0, 40(%rax)
	vmovsd	48(%rdi), %xmm0
	vmovsd	%xmm0, 48(%rax)
	vmovsd	80(%rdi), %xmm0
	vmovsd	%xmm0, 80(%rax)
	vmovsd	88(%rdi), %xmm0
	vmovsd	%xmm0, 88(%rax)
	vmovsd	96(%rdi), %xmm0
	vmovsd	%xmm0, 96(%rax)
	vmovsd	56(%rdi), %xmm0
	vmovsd	%xmm0, 56(%rax)
	vmovsd	64(%rdi), %xmm0
	vmovsd	%xmm0, 64(%rax)
	vmovsd	72(%rdi), %xmm0
	vmovsd	%xmm0, 72(%rax)
	vzeroupper
.L230:
	leaq	-16(%rbp), %rsp
	popq	%rbx
	popq	%r12
	popq	%rbp
	.cfi_remember_state
	.cfi_def_cfa 7, 8
	ret
	.p2align 4,,10
	.p2align 3
.L211:
	.cfi_restore_state
	addl	$1, %eax
	xorl	%edx, %edx
	jmp	.L218
	.p2align 4,,10
	.p2align 3
.L213:
	addq	%rbx, %r11
	leaq	(%r11,%r11,2), %rax
	leaq	(%r11,%rax,4), %rax
	leaq	104(%rdi,%rax,8), %rax
	.p2align 4,,10
	.p2align 3
.L216:
	vmovsd	(%rcx), %xmm0
	addq	$104, %rcx
	addq	$104, %rsi
	vmovsd	%xmm0, -104(%rsi)
	vmovsd	-96(%rcx), %xmm0
	vmovsd	%xmm0, -96(%rsi)
	vmovsd	-88(%rcx), %xmm0
	vmovsd	%xmm0, -88(%rsi)
	vmovsd	-80(%rcx), %xmm0
	vmovsd	%xmm0, -80(%rsi)
	vmovsd	-72(%rcx), %xmm0
	vmovsd	%xmm0, -72(%rsi)
	vmovsd	-64(%rcx), %xmm0
	vmovsd	%xmm0, -64(%rsi)
	vmovsd	-56(%rcx), %xmm0
	vmovsd	%xmm0, -56(%rsi)
	vmovsd	-24(%rcx), %xmm0
	vmovsd	%xmm0, -24(%rsi)
	vmovsd	-16(%rcx), %xmm0
	vmovsd	%xmm0, -16(%rsi)
	vmovsd	-8(%rcx), %xmm0
	vmovsd	%xmm0, -8(%rsi)
	vmovsd	-48(%rcx), %xmm0
	vmovsd	%xmm0, -48(%rsi)
	vmovsd	-40(%rcx), %xmm0
	vmovsd	%xmm0, -40(%rsi)
	vmovsd	-32(%rcx), %xmm0
	vmovsd	%xmm0, -32(%rsi)
	cmpq	%rax, %rcx
	jne	.L216
	jmp	.L230
	.p2align 4,,10
	.p2align 3
.L229:
	vzeroupper
	leaq	-16(%rbp), %rsp
	popq	%rbx
	popq	%r12
	popq	%rbp
	.cfi_def_cfa 7, 8
	ret
	.cfi_endproc
.LFE15824:
	.size	_ZN17ParticleSimulator18ReallocatableArrayI13MySPJMonopoleE12ReallocInnerEi._omp_fn.0, .-_ZN17ParticleSimulator18ReallocatableArrayI13MySPJMonopoleE12ReallocInnerEi._omp_fn.0
	.p2align 4
	.type	_ZN17ParticleSimulator18ReallocatableArrayI13MySPJMonopoleE12ReallocInnerEi._omp_fn.1, @function
_ZN17ParticleSimulator18ReallocatableArrayI13MySPJMonopoleE12ReallocInnerEi._omp_fn.1:
.LFB15825:
	.cfi_startproc
	endbr64
	pushq	%r12
	.cfi_def_cfa_offset 16
	.cfi_offset 12, -16
	pushq	%rbp
	.cfi_def_cfa_offset 24
	.cfi_offset 6, -24
	pushq	%rbx
	.cfi_def_cfa_offset 32
	.cfi_offset 3, -32
	movq	(%rdi), %r12
	movq	8(%rdi), %rbp
	call	omp_get_thread_num@PLT
	movl	%eax, %ebx
	call	omp_get_num_threads@PLT
	movl	%ebx, %r9d
	movl	%eax, %r8d
	movl	12(%r12), %eax
	cltd
	idivl	%r8d
	movl	%eax, %r8d
	imull	%ebx, %r8d
	cmpl	%ebx, %edx
	cmovle	%edx, %r9d
	addl	$1, %ebx
	addl	%r8d, %r9d
	movslq	%r9d, %rcx
	leaq	(%rcx,%rcx,2), %rsi
	leaq	(%rcx,%rsi,4), %rsi
	salq	$3, %rsi
	cmpl	%edx, %ebx
	cmovg	%edx, %ebx
	addl	%r8d, %eax
	leaq	0(%rbp,%rsi), %rdi
	addq	(%r12), %rsi
	addl	%eax, %ebx
	subl	%r9d, %ebx
	movslq	%ebx, %rax
	popq	%rbx
	.cfi_def_cfa_offset 24
	popq	%rbp
	.cfi_def_cfa_offset 16
	leaq	(%rax,%rax,2), %rdx
	popq	%r12
	.cfi_def_cfa_offset 8
	leaq	(%rax,%rdx,4), %rdx
	salq	$3, %rdx
	jmp	memcpy@PLT
	.cfi_endproc
.LFE15825:
	.size	_ZN17ParticleSimulator18ReallocatableArrayI13MySPJMonopoleE12ReallocInnerEi._omp_fn.1, .-_ZN17ParticleSimulator18ReallocatableArrayI13MySPJMonopoleE12ReallocInnerEi._omp_fn.1
	.p2align 4
	.type	_ZN17ParticleSimulator18ReallocatableArrayI13MySPJMonopoleE12ReallocInnerEi._omp_fn.2, @function
_ZN17ParticleSimulator18ReallocatableArrayI13MySPJMonopoleE12ReallocInnerEi._omp_fn.2:
.LFB15826:
	.cfi_startproc
	endbr64
	pushq	%r12
	.cfi_def_cfa_offset 16
	.cfi_offset 12, -16
	pushq	%rbp
	.cfi_def_cfa_offset 24
	.cfi_offset 6, -24
	pushq	%rbx
	.cfi_def_cfa_offset 32
	.cfi_offset 3, -32
	movq	(%rdi), %r12
	movq	8(%rdi), %rbp
	call	omp_get_thread_num@PLT
	movl	%eax, %ebx
	call	omp_get_num_threads@PLT
	movl	%ebx, %r9d
	movl	%eax, %r8d
	movl	8(%r12), %eax
	cltd
	idivl	%r8d
	movq	(%r12), %r8
	movl	%eax, %edi
	imull	%ebx, %edi
	cmpl	%ebx, %edx
	cmovle	%edx, %r9d
	addl	$1, %ebx
	addl	%edi, %r9d
	movslq	%r9d, %rcx
	leaq	(%rcx,%rcx,2), %rsi
	leaq	(%rcx,%rsi,4), %rsi
	salq	$3, %rsi
	addq	%rsi, %r8
	cmpl	%edx, %ebx
	cmovg	%edx, %ebx
	addl	%edi, %eax
	addq	%rbp, %rsi
	movq	%r8, %rdi
	addl	%eax, %ebx
	subl	%r9d, %ebx
	movslq	%ebx, %rax
	popq	%rbx
	.cfi_def_cfa_offset 24
	popq	%rbp
	.cfi_def_cfa_offset 16
	leaq	(%rax,%rax,2), %rdx
	popq	%r12
	.cfi_def_cfa_offset 8
	leaq	(%rax,%rdx,4), %rdx
	salq	$3, %rdx
	jmp	memcpy@PLT
	.cfi_endproc
.LFE15826:
	.size	_ZN17ParticleSimulator18ReallocatableArrayI13MySPJMonopoleE12ReallocInnerEi._omp_fn.2, .-_ZN17ParticleSimulator18ReallocatableArrayI13MySPJMonopoleE12ReallocInnerEi._omp_fn.2
	.p2align 4
	.type	_ZN17ParticleSimulator18ReallocatableArrayI7Force_tE12ReallocInnerEi._omp_fn.0, @function
_ZN17ParticleSimulator18ReallocatableArrayI7Force_tE12ReallocInnerEi._omp_fn.0:
.LFB15827:
	.cfi_startproc
	endbr64
	pushq	%rbp
	.cfi_def_cfa_offset 16
	.cfi_offset 6, -16
	movq	%rsp, %rbp
	.cfi_def_cfa_register 6
	pushq	%r12
	.cfi_offset 12, -24
	movq	%rdi, %r12
	pushq	%rbx
	andq	$-32, %rsp
	.cfi_offset 3, -32
	call	omp_get_num_threads@PLT
	movl	%eax, %ebx
	call	omp_get_thread_num@PLT
	movl	%eax, %ecx
	movq	(%r12), %rax
	movl	8(%rax), %eax
	cltd
	idivl	%ebx
	cmpl	%edx, %ecx
	jl	.L237
.L244:
	imull	%eax, %ecx
	addl	%ecx, %edx
	leal	(%rax,%rdx), %r10d
	cmpl	%r10d, %edx
	jge	.L256
	movslq	%edx, %rdi
	movq	8(%r12), %r8
	movq	16(%r12), %r9
	leal	-1(%rax), %r11d
	leaq	0(,%rdi,8), %rsi
	subq	%rdi, %rsi
	salq	$3, %rsi
	leaq	224(%rsi), %rbx
	leaq	(%r8,%rsi), %rcx
	addq	%r9, %rsi
	leaq	(%r9,%rbx), %r12
	cmpq	%r12, %rcx
	setnb	%r12b
	addq	%r8, %rbx
	cmpq	%rbx, %rsi
	setnb	%bl
	orb	%bl, %r12b
	je	.L239
	cmpl	$2, %r11d
	jbe	.L239
	movl	%eax, %r11d
	shrl	$2, %r11d
	leaq	0(,%r11,8), %rdi
	subq	%r11, %rdi
	salq	$5, %rdi
	addq	%rcx, %rdi
	.p2align 4,,10
	.p2align 3
.L240:
	vmovupd	(%rcx), %xmm7
	vmovupd	64(%rcx), %xmm1
	addq	$224, %rcx
	addq	$224, %rsi
	vinsertf128	$0x1, -208(%rcx), %ymm7, %ymm6
	vmovupd	-128(%rcx), %xmm2
	vmovupd	-192(%rcx), %xmm7
	vinsertf128	$0x1, -112(%rcx), %ymm2, %ymm3
	vinsertf128	$0x1, -176(%rcx), %ymm7, %ymm5
	vmovupd	-96(%rcx), %xmm7
	vinsertf128	$0x1, -144(%rcx), %ymm1, %ymm4
	vinsertf128	$0x1, -80(%rcx), %ymm7, %ymm2
	vmovupd	-64(%rcx), %xmm1
	vmovupd	-32(%rcx), %xmm7
	vinsertf128	$0x1, -48(%rcx), %ymm1, %ymm1
	vinsertf128	$0x1, -16(%rcx), %ymm7, %ymm0
	vmovups	%xmm6, -224(%rsi)
	vextractf128	$0x1, %ymm6, -208(%rsi)
	vmovups	%xmm5, -192(%rsi)
	vextractf128	$0x1, %ymm5, -176(%rsi)
	vextractf128	$0x1, %ymm4, -144(%rsi)
	vextractf128	$0x1, %ymm3, -112(%rsi)
	vmovups	%xmm4, -160(%rsi)
	vextractf128	$0x1, %ymm2, -80(%rsi)
	vextractf128	$0x1, %ymm1, -48(%rsi)
	vextractf128	$0x1, %ymm0, -16(%rsi)
	vmovups	%xmm3, -128(%rsi)
	vmovups	%xmm2, -96(%rsi)
	vmovups	%xmm1, -64(%rsi)
	vmovups	%xmm0, -32(%rsi)
	cmpq	%rdi, %rcx
	jne	.L240
	movl	%eax, %ecx
	andl	$-4, %ecx
	addl	%ecx, %edx
	cmpl	%ecx, %eax
	je	.L255
	movslq	%edx, %rax
	leaq	0(,%rax,8), %rsi
	subq	%rax, %rsi
	salq	$3, %rsi
	leaq	(%r8,%rsi), %rdi
	leaq	(%r9,%rsi), %rax
	vmovupd	(%rdi), %xmm4
	vinsertf128	$0x1, 16(%rdi), %ymm4, %ymm0
	vmovups	%xmm0, (%r9,%rsi)
	vextractf128	$0x1, %ymm0, 16(%r9,%rsi)
	vmovsd	32(%rdi), %xmm0
	vmovsd	%xmm0, 32(%rax)
	vmovsd	40(%rdi), %xmm0
	vmovsd	%xmm0, 40(%rax)
	vmovsd	48(%rdi), %xmm0
	vmovsd	%xmm0, 48(%rax)
	leal	1(%rdx), %eax
	cmpl	%eax, %r10d
	jle	.L255
	leaq	56(%rsi), %rcx
	addl	$2, %edx
	leaq	(%r8,%rcx), %rax
	leaq	(%r9,%rcx), %rdi
	vmovupd	(%rax), %xmm5
	vinsertf128	$0x1, 16(%rax), %ymm5, %ymm0
	vmovups	%xmm0, 56(%r9,%rsi)
	vextractf128	$0x1, %ymm0, 72(%r9,%rsi)
	vmovsd	32(%rax), %xmm0
	vmovsd	%xmm0, 32(%rdi)
	vmovsd	40(%rax), %xmm0
	vmovsd	%xmm0, 40(%rdi)
	vmovsd	48(%rax), %xmm0
	vmovsd	%xmm0, 48(%rdi)
	cmpl	%edx, %r10d
	jle	.L255
	addq	$112, %rsi
	addq	%rsi, %r8
	leaq	(%r9,%rsi), %rax
	vmovupd	(%r8), %xmm6
	vinsertf128	$0x1, 16(%r8), %ymm6, %ymm0
	vmovups	%xmm0, (%r9,%rsi)
	vextractf128	$0x1, %ymm0, 16(%r9,%rsi)
	vmovsd	32(%r8), %xmm0
	vmovsd	%xmm0, 32(%rax)
	vmovsd	40(%r8), %xmm0
	vmovsd	%xmm0, 40(%rax)
	vmovsd	48(%r8), %xmm0
	vmovsd	%xmm0, 48(%rax)
	vzeroupper
.L256:
	leaq	-16(%rbp), %rsp
	popq	%rbx
	popq	%r12
	popq	%rbp
	.cfi_remember_state
	.cfi_def_cfa 7, 8
	ret
	.p2align 4,,10
	.p2align 3
.L239:
	.cfi_restore_state
	addq	%r11, %rdi
	leaq	0(,%rdi,8), %rax
	subq	%rdi, %rax
	leaq	56(%r8,%rax,8), %rax
	.p2align 4,,10
	.p2align 3
.L242:
	vmovupd	(%rcx), %xmm3
	vinsertf128	$0x1, 16(%rcx), %ymm3, %ymm0
	addq	$56, %rcx
	addq	$56, %rsi
	vmovups	%xmm0, -56(%rsi)
	vextractf128	$0x1, %ymm0, -40(%rsi)
	vmovsd	-24(%rcx), %xmm0
	vmovsd	%xmm0, -24(%rsi)
	vmovsd	-16(%rcx), %xmm0
	vmovsd	%xmm0, -16(%rsi)
	vmovsd	-8(%rcx), %xmm0
	vmovsd	%xmm0, -8(%rsi)
	cmpq	%rax, %rcx
	jne	.L242
.L255:
	vzeroupper
	leaq	-16(%rbp), %rsp
	popq	%rbx
	popq	%r12
	popq	%rbp
	.cfi_remember_state
	.cfi_def_cfa 7, 8
	ret
	.p2align 4,,10
	.p2align 3
.L237:
	.cfi_restore_state
	addl	$1, %eax
	xorl	%edx, %edx
	jmp	.L244
	.cfi_endproc
.LFE15827:
	.size	_ZN17ParticleSimulator18ReallocatableArrayI7Force_tE12ReallocInnerEi._omp_fn.0, .-_ZN17ParticleSimulator18ReallocatableArrayI7Force_tE12ReallocInnerEi._omp_fn.0
	.p2align 4
	.type	_ZN17ParticleSimulator18ReallocatableArrayI7Force_tE12ReallocInnerEi._omp_fn.1, @function
_ZN17ParticleSimulator18ReallocatableArrayI7Force_tE12ReallocInnerEi._omp_fn.1:
.LFB15828:
	.cfi_startproc
	endbr64
	pushq	%r12
	.cfi_def_cfa_offset 16
	.cfi_offset 12, -16
	pushq	%rbp
	.cfi_def_cfa_offset 24
	.cfi_offset 6, -24
	pushq	%rbx
	.cfi_def_cfa_offset 32
	.cfi_offset 3, -32
	movq	(%rdi), %rbp
	movq	8(%rdi), %r12
	call	omp_get_thread_num@PLT
	movl	%eax, %ebx
	call	omp_get_num_threads@PLT
	movl	%eax, %r8d
	movl	12(%rbp), %eax
	cltd
	idivl	%r8d
	movl	%ebx, %r8d
	movl	%eax, %ecx
	imull	%ebx, %ecx
	cmpl	%ebx, %edx
	cmovle	%edx, %r8d
	addl	$1, %ebx
	addl	%ecx, %r8d
	movslq	%r8d, %rdi
	leaq	0(,%rdi,8), %rsi
	subq	%rdi, %rsi
	salq	$3, %rsi
	cmpl	%edx, %ebx
	cmovg	%edx, %ebx
	addl	%ecx, %eax
	leaq	(%r12,%rsi), %rdi
	addq	0(%rbp), %rsi
	addl	%eax, %ebx
	subl	%r8d, %ebx
	movslq	%ebx, %rbx
	leaq	0(,%rbx,8), %rdx
	subq	%rbx, %rdx
	popq	%rbx
	.cfi_def_cfa_offset 24
	popq	%rbp
	.cfi_def_cfa_offset 16
	salq	$3, %rdx
	popq	%r12
	.cfi_def_cfa_offset 8
	jmp	memcpy@PLT
	.cfi_endproc
.LFE15828:
	.size	_ZN17ParticleSimulator18ReallocatableArrayI7Force_tE12ReallocInnerEi._omp_fn.1, .-_ZN17ParticleSimulator18ReallocatableArrayI7Force_tE12ReallocInnerEi._omp_fn.1
	.p2align 4
	.type	_ZN17ParticleSimulator18ReallocatableArrayI7Force_tE12ReallocInnerEi._omp_fn.2, @function
_ZN17ParticleSimulator18ReallocatableArrayI7Force_tE12ReallocInnerEi._omp_fn.2:
.LFB15829:
	.cfi_startproc
	endbr64
	pushq	%r12
	.cfi_def_cfa_offset 16
	.cfi_offset 12, -16
	pushq	%rbp
	.cfi_def_cfa_offset 24
	.cfi_offset 6, -24
	pushq	%rbx
	.cfi_def_cfa_offset 32
	.cfi_offset 3, -32
	movq	(%rdi), %r12
	movq	8(%rdi), %rbp
	call	omp_get_thread_num@PLT
	movl	%eax, %ebx
	call	omp_get_num_threads@PLT
	movl	%eax, %r8d
	movl	8(%r12), %eax
	cltd
	idivl	%r8d
	movl	%ebx, %r8d
	movl	%eax, %ecx
	imull	%ebx, %ecx
	cmpl	%ebx, %edx
	cmovle	%edx, %r8d
	addl	$1, %ebx
	addl	%ecx, %r8d
	movslq	%r8d, %rdi
	leaq	0(,%rdi,8), %rsi
	subq	%rdi, %rsi
	movq	(%r12), %rdi
	salq	$3, %rsi
	addq	%rsi, %rdi
	cmpl	%edx, %ebx
	cmovg	%edx, %ebx
	addl	%ecx, %eax
	addq	%rbp, %rsi
	addl	%eax, %ebx
	subl	%r8d, %ebx
	movslq	%ebx, %rbx
	leaq	0(,%rbx,8), %rdx
	subq	%rbx, %rdx
	popq	%rbx
	.cfi_def_cfa_offset 24
	popq	%rbp
	.cfi_def_cfa_offset 16
	salq	$3, %rdx
	popq	%r12
	.cfi_def_cfa_offset 8
	jmp	memcpy@PLT
	.cfi_endproc
.LFE15829:
	.size	_ZN17ParticleSimulator18ReallocatableArrayI7Force_tE12ReallocInnerEi._omp_fn.2, .-_ZN17ParticleSimulator18ReallocatableArrayI7Force_tE12ReallocInnerEi._omp_fn.2
	.section	.text._ZN17ParticleSimulator12TreeForForceINS_24SEARCH_MODE_LONG_SCATTERE7Force_t5EPI_tS3_16MyMomentMonopoleS4_13MySPJMonopoleLNS_18CALC_DISTANCE_TYPEE1EE22copyForceOriginalOrderEv._omp_fn.0,"axG",@progbits,_ZN17ParticleSimulator12TreeForForceINS_24SEARCH_MODE_LONG_SCATTERE7Force_t5EPI_tS3_16MyMomentMonopoleS4_13MySPJMonopoleLNS_18CALC_DISTANCE_TYPEE1EE22copyForceOriginalOrderEv,comdat
	.p2align 4
	.type	_ZN17ParticleSimulator12TreeForForceINS_24SEARCH_MODE_LONG_SCATTERE7Force_t5EPI_tS3_16MyMomentMonopoleS4_13MySPJMonopoleLNS_18CALC_DISTANCE_TYPEE1EE22copyForceOriginalOrderEv._omp_fn.0, @function
_ZN17ParticleSimulator12TreeForForceINS_24SEARCH_MODE_LONG_SCATTERE7Force_t5EPI_tS3_16MyMomentMonopoleS4_13MySPJMonopoleLNS_18CALC_DISTANCE_TYPEE1EE22copyForceOriginalOrderEv._omp_fn.0:
.LFB15830:
	.cfi_startproc
	endbr64
	pushq	%rbp
	.cfi_def_cfa_offset 16
	.cfi_offset 6, -16
	movq	%rsp, %rbp
	.cfi_def_cfa_register 6
	pushq	%r12
	pushq	%rbx
	.cfi_offset 12, -24
	.cfi_offset 3, -32
	movq	(%rdi), %r12
	andq	$-32, %rsp
	call	omp_get_num_threads@PLT
	movl	%eax, %ebx
	call	omp_get_thread_num@PLT
	movl	%eax, %ecx
	movl	816(%r12), %eax
	cltd
	idivl	%ebx
	cmpl	%edx, %ecx
	jl	.L263
.L266:
	imull	%eax, %ecx
	addl	%ecx, %edx
	leal	(%rax,%rdx), %ecx
	cmpl	%ecx, %edx
	jge	.L268
	movslq	%edx, %rdx
	movq	1112(%r12), %r8
	subl	$1, %eax
	movq	1336(%r12), %r9
	leaq	0(,%rdx,8), %rcx
	movq	1080(%r12), %rdi
	leaq	(%r8,%rdx,4), %rsi
	subq	%rdx, %rcx
	addq	%rax, %rdx
	leaq	(%r9,%rcx,8), %rcx
	leaq	4(%r8,%rdx,4), %r8
	.p2align 4,,10
	.p2align 3
.L265:
	movslq	(%rsi), %rdx
	vmovupd	(%rcx), %xmm1
	addq	$4, %rsi
	addq	$56, %rcx
	vinsertf128	$0x1, -40(%rcx), %ymm1, %ymm0
	leaq	0(,%rdx,8), %rax
	subq	%rdx, %rax
	vmovups	%xmm0, (%rdi,%rax,8)
	vextractf128	$0x1, %ymm0, 16(%rdi,%rax,8)
	leaq	(%rdi,%rax,8), %rdx
	vmovsd	-24(%rcx), %xmm0
	vmovsd	%xmm0, 32(%rdx)
	vmovsd	-16(%rcx), %xmm0
	vmovsd	%xmm0, 40(%rdx)
	vmovsd	-8(%rcx), %xmm0
	vmovsd	%xmm0, 48(%rdx)
	cmpq	%rsi, %r8
	jne	.L265
	vzeroupper
.L268:
	leaq	-16(%rbp), %rsp
	popq	%rbx
	popq	%r12
	popq	%rbp
	.cfi_remember_state
	.cfi_def_cfa 7, 8
	ret
	.p2align 4,,10
	.p2align 3
.L263:
	.cfi_restore_state
	addl	$1, %eax
	xorl	%edx, %edx
	jmp	.L266
	.cfi_endproc
.LFE15830:
	.size	_ZN17ParticleSimulator12TreeForForceINS_24SEARCH_MODE_LONG_SCATTERE7Force_t5EPI_tS3_16MyMomentMonopoleS4_13MySPJMonopoleLNS_18CALC_DISTANCE_TYPEE1EE22copyForceOriginalOrderEv._omp_fn.0, .-_ZN17ParticleSimulator12TreeForForceINS_24SEARCH_MODE_LONG_SCATTERE7Force_t5EPI_tS3_16MyMomentMonopoleS4_13MySPJMonopoleLNS_18CALC_DISTANCE_TYPEE1EE22copyForceOriginalOrderEv._omp_fn.0
	.section	.text._ZN17ParticleSimulator12TreeForForceINS_24SEARCH_MODE_LONG_SCATTERE7Force_t5EPI_tS3_16MyMomentMonopoleS4_13MySPJMonopoleLNS_18CALC_DISTANCE_TYPEE1EE15makeIPGroupImplENS_12TagForceLongE._omp_fn.0,"axG",@progbits,_ZN17ParticleSimulator12TreeForForceINS_24SEARCH_MODE_LONG_SCATTERE7Force_t5EPI_tS3_16MyMomentMonopoleS4_13MySPJMonopoleLNS_18CALC_DISTANCE_TYPEE1EE11makeIPGroupEv,comdat
	.p2align 4
	.type	_ZN17ParticleSimulator12TreeForForceINS_24SEARCH_MODE_LONG_SCATTERE7Force_t5EPI_tS3_16MyMomentMonopoleS4_13MySPJMonopoleLNS_18CALC_DISTANCE_TYPEE1EE15makeIPGroupImplENS_12TagForceLongE._omp_fn.0, @function
_ZN17ParticleSimulator12TreeForForceINS_24SEARCH_MODE_LONG_SCATTERE7Force_t5EPI_tS3_16MyMomentMonopoleS4_13MySPJMonopoleLNS_18CALC_DISTANCE_TYPEE1EE15makeIPGroupImplENS_12TagForceLongE._omp_fn.0:
.LFB15831:
	.cfi_startproc
	endbr64
	pushq	%rbp
	.cfi_def_cfa_offset 16
	.cfi_offset 6, -16
	movq	%rsp, %rbp
	.cfi_def_cfa_register 6
	pushq	%r12
	.cfi_offset 12, -24
	movq	%rdi, %r12
	pushq	%rbx
	andq	$-32, %rsp
	.cfi_offset 3, -32
	call	omp_get_num_threads@PLT
	movl	%eax, %ebx
	call	omp_get_thread_num@PLT
	movl	%eax, %ecx
	movl	8(%r12), %eax
	cltd
	idivl	%ebx
	cmpl	%edx, %ecx
	jl	.L271
.L277:
	imull	%eax, %ecx
	addl	%ecx, %edx
	leal	(%rax,%rdx), %ecx
	cmpl	%ecx, %edx
	jge	.L281
	movq	(%r12), %rcx
	movslq	%edx, %rdx
	subl	$1, %eax
	movq	1048(%rcx), %rsi
	movq	1176(%rcx), %r8
	leaq	0(,%rdx,8), %rcx
	subq	%rdx, %rcx
	addq	%rax, %rdx
	leaq	0(,%rdx,8), %rax
	leaq	(%rsi,%rcx,8), %rcx
	subq	%rdx, %rax
	leaq	56(%rsi,%rax,8), %r9
	.p2align 4,,10
	.p2align 3
.L275:
	movslq	4(%rcx), %rax
	movl	(%rcx), %esi
	leaq	(%rax,%rax,2), %rdx
	leaq	(%rax,%rdx,4), %rax
	leaq	(%r8,%rax,8), %rdx
	vmovsd	24(%rdx), %xmm2
	vmovsd	32(%rdx), %xmm4
	vmovsd	40(%rdx), %xmm3
	cmpl	$1, %esi
	jle	.L278
	vmovapd	%xmm3, %xmm0
	vmovapd	%xmm4, %xmm5
	vmovapd	%xmm2, %xmm1
	subl	$2, %esi
	leaq	(%rsi,%rsi,2), %rdi
	leaq	128(%rdx), %rax
	leaq	(%rsi,%rdi,4), %rsi
	leaq	232(%rdx,%rsi,8), %rdx
	.p2align 4,,10
	.p2align 3
.L274:
	vmovsd	(%rax), %xmm8
	vmovsd	8(%rax), %xmm7
	addq	$104, %rax
	vmovsd	-88(%rax), %xmm6
	vmaxsd	%xmm8, %xmm2, %xmm2
	vmaxsd	%xmm7, %xmm4, %xmm4
	vmaxsd	%xmm6, %xmm3, %xmm3
	vminsd	%xmm8, %xmm1, %xmm1
	vminsd	%xmm7, %xmm5, %xmm5
	vminsd	%xmm6, %xmm0, %xmm0
	cmpq	%rdx, %rax
	jne	.L274
.L273:
	vunpcklpd	%xmm2, %xmm0, %xmm0
	vunpcklpd	%xmm5, %xmm1, %xmm1
	vmovsd	%xmm4, 40(%rcx)
	addq	$56, %rcx
	vmovsd	%xmm3, -8(%rcx)
	vmovups	%xmm1, -48(%rcx)
	vmovups	%xmm0, -32(%rcx)
	cmpq	%rcx, %r9
	jne	.L275
.L281:
	leaq	-16(%rbp), %rsp
	popq	%rbx
	popq	%r12
	popq	%rbp
	.cfi_remember_state
	.cfi_def_cfa 7, 8
	ret
	.p2align 4,,10
	.p2align 3
.L278:
	.cfi_restore_state
	vmovapd	%xmm3, %xmm0
	vmovapd	%xmm4, %xmm5
	vmovapd	%xmm2, %xmm1
	jmp	.L273
	.p2align 4,,10
	.p2align 3
.L271:
	addl	$1, %eax
	xorl	%edx, %edx
	jmp	.L277
	.cfi_endproc
.LFE15831:
	.size	_ZN17ParticleSimulator12TreeForForceINS_24SEARCH_MODE_LONG_SCATTERE7Force_t5EPI_tS3_16MyMomentMonopoleS4_13MySPJMonopoleLNS_18CALC_DISTANCE_TYPEE1EE15makeIPGroupImplENS_12TagForceLongE._omp_fn.0, .-_ZN17ParticleSimulator12TreeForForceINS_24SEARCH_MODE_LONG_SCATTERE7Force_t5EPI_tS3_16MyMomentMonopoleS4_13MySPJMonopoleLNS_18CALC_DISTANCE_TYPEE1EE15makeIPGroupImplENS_12TagForceLongE._omp_fn.0
	.section	.text._ZN17ParticleSimulator18ReallocatableArrayINS_7IPGroupINS_8TagIpgInEEEE12ReallocInnerEi._omp_fn.0,"axG",@progbits,_ZN17ParticleSimulator18ReallocatableArrayINS_7IPGroupINS_8TagIpgInEEEE12increaseSizeEi,comdat
	.p2align 4
	.type	_ZN17ParticleSimulator18ReallocatableArrayINS_7IPGroupINS_8TagIpgInEEEE12ReallocInnerEi._omp_fn.0, @function
_ZN17ParticleSimulator18ReallocatableArrayINS_7IPGroupINS_8TagIpgInEEEE12ReallocInnerEi._omp_fn.0:
.LFB15832:
	.cfi_startproc
	endbr64
	pushq	%rbp
	.cfi_def_cfa_offset 16
	.cfi_offset 6, -16
	pushq	%rbx
	.cfi_def_cfa_offset 24
	.cfi_offset 3, -24
	movq	%rdi, %rbx
	subq	$8, %rsp
	.cfi_def_cfa_offset 32
	call	omp_get_num_threads@PLT
	movl	%eax, %ebp
	call	omp_get_thread_num@PLT
	movl	%eax, %ecx
	movq	(%rbx), %rax
	movl	8(%rax), %eax
	cltd
	idivl	%ebp
	cmpl	%edx, %ecx
	jl	.L284
.L287:
	imull	%eax, %ecx
	addl	%ecx, %edx
	leal	(%rax,%rdx), %ecx
	cmpl	%ecx, %edx
	jge	.L289
	movslq	%edx, %rdx
	subl	$1, %eax
	movq	8(%rbx), %rdi
	leaq	0(,%rdx,8), %rsi
	subq	%rdx, %rsi
	addq	%rax, %rdx
	leaq	0(,%rdx,8), %rax
	salq	$3, %rsi
	subq	%rdx, %rax
	leaq	(%rdi,%rsi), %rcx
	addq	16(%rbx), %rsi
	leaq	56(%rdi,%rax,8), %rdx
	.p2align 4,,10
	.p2align 3
.L286:
	movl	(%rcx), %eax
	vmovsd	32(%rcx), %xmm0
	addq	$56, %rcx
	addq	$56, %rsi
	movl	%eax, -56(%rsi)
	movl	-52(%rcx), %eax
	vmovsd	%xmm0, -24(%rsi)
	vmovsd	-16(%rcx), %xmm0
	movl	%eax, -52(%rsi)
	vmovsd	%xmm0, -16(%rsi)
	vmovsd	-8(%rcx), %xmm0
	vmovsd	%xmm0, -8(%rsi)
	vmovsd	-48(%rcx), %xmm0
	vmovsd	%xmm0, -48(%rsi)
	vmovsd	-40(%rcx), %xmm0
	vmovsd	%xmm0, -40(%rsi)
	vmovsd	-32(%rcx), %xmm0
	vmovsd	%xmm0, -32(%rsi)
	cmpq	%rdx, %rcx
	jne	.L286
.L289:
	addq	$8, %rsp
	.cfi_remember_state
	.cfi_def_cfa_offset 24
	popq	%rbx
	.cfi_def_cfa_offset 16
	popq	%rbp
	.cfi_def_cfa_offset 8
	ret
	.p2align 4,,10
	.p2align 3
.L284:
	.cfi_restore_state
	addl	$1, %eax
	xorl	%edx, %edx
	jmp	.L287
	.cfi_endproc
.LFE15832:
	.size	_ZN17ParticleSimulator18ReallocatableArrayINS_7IPGroupINS_8TagIpgInEEEE12ReallocInnerEi._omp_fn.0, .-_ZN17ParticleSimulator18ReallocatableArrayINS_7IPGroupINS_8TagIpgInEEEE12ReallocInnerEi._omp_fn.0
	.section	.text._ZN17ParticleSimulator18ReallocatableArrayINS_7IPGroupINS_8TagIpgInEEEE12ReallocInnerEi._omp_fn.1,"axG",@progbits,_ZN17ParticleSimulator18ReallocatableArrayINS_7IPGroupINS_8TagIpgInEEEE12increaseSizeEi,comdat
	.p2align 4
	.type	_ZN17ParticleSimulator18ReallocatableArrayINS_7IPGroupINS_8TagIpgInEEEE12ReallocInnerEi._omp_fn.1, @function
_ZN17ParticleSimulator18ReallocatableArrayINS_7IPGroupINS_8TagIpgInEEEE12ReallocInnerEi._omp_fn.1:
.LFB15833:
	.cfi_startproc
	endbr64
	pushq	%r12
	.cfi_def_cfa_offset 16
	.cfi_offset 12, -16
	pushq	%rbp
	.cfi_def_cfa_offset 24
	.cfi_offset 6, -24
	pushq	%rbx
	.cfi_def_cfa_offset 32
	.cfi_offset 3, -32
	movq	(%rdi), %rbp
	movq	8(%rdi), %r12
	call	omp_get_thread_num@PLT
	movl	%eax, %ebx
	call	omp_get_num_threads@PLT
	movl	%eax, %r8d
	movl	12(%rbp), %eax
	cltd
	idivl	%r8d
	movl	%ebx, %r8d
	movl	%eax, %ecx
	imull	%ebx, %ecx
	cmpl	%ebx, %edx
	cmovle	%edx, %r8d
	addl	$1, %ebx
	addl	%ecx, %r8d
	movslq	%r8d, %rdi
	leaq	0(,%rdi,8), %rsi
	subq	%rdi, %rsi
	salq	$3, %rsi
	cmpl	%edx, %ebx
	cmovg	%edx, %ebx
	addl	%ecx, %eax
	leaq	(%r12,%rsi), %rdi
	addq	0(%rbp), %rsi
	addl	%eax, %ebx
	subl	%r8d, %ebx
	movslq	%ebx, %rbx
	leaq	0(,%rbx,8), %rdx
	subq	%rbx, %rdx
	popq	%rbx
	.cfi_def_cfa_offset 24
	popq	%rbp
	.cfi_def_cfa_offset 16
	salq	$3, %rdx
	popq	%r12
	.cfi_def_cfa_offset 8
	jmp	memcpy@PLT
	.cfi_endproc
.LFE15833:
	.size	_ZN17ParticleSimulator18ReallocatableArrayINS_7IPGroupINS_8TagIpgInEEEE12ReallocInnerEi._omp_fn.1, .-_ZN17ParticleSimulator18ReallocatableArrayINS_7IPGroupINS_8TagIpgInEEEE12ReallocInnerEi._omp_fn.1
	.section	.text._ZN17ParticleSimulator18ReallocatableArrayINS_7IPGroupINS_8TagIpgInEEEE12ReallocInnerEi._omp_fn.2,"axG",@progbits,_ZN17ParticleSimulator18ReallocatableArrayINS_7IPGroupINS_8TagIpgInEEEE12increaseSizeEi,comdat
	.p2align 4
	.type	_ZN17ParticleSimulator18ReallocatableArrayINS_7IPGroupINS_8TagIpgInEEEE12ReallocInnerEi._omp_fn.2, @function
_ZN17ParticleSimulator18ReallocatableArrayINS_7IPGroupINS_8TagIpgInEEEE12ReallocInnerEi._omp_fn.2:
.LFB15834:
	.cfi_startproc
	endbr64
	pushq	%r12
	.cfi_def_cfa_offset 16
	.cfi_offset 12, -16
	pushq	%rbp
	.cfi_def_cfa_offset 24
	.cfi_offset 6, -24
	pushq	%rbx
	.cfi_def_cfa_offset 32
	.cfi_offset 3, -32
	movq	(%rdi), %r12
	movq	8(%rdi), %rbp
	call	omp_get_thread_num@PLT
	movl	%eax, %ebx
	call	omp_get_num_threads@PLT
	movl	%eax, %r8d
	movl	8(%r12), %eax
	cltd
	idivl	%r8d
	movl	%ebx, %r8d
	movl	%eax, %ecx
	imull	%ebx, %ecx
	cmpl	%ebx, %edx
	cmovle	%edx, %r8d
	addl	$1, %ebx
	addl	%ecx, %r8d
	movslq	%r8d, %rdi
	leaq	0(,%rdi,8), %rsi
	subq	%rdi, %rsi
	movq	(%r12), %rdi
	salq	$3, %rsi
	addq	%rsi, %rdi
	cmpl	%edx, %ebx
	cmovg	%edx, %ebx
	addl	%ecx, %eax
	addq	%rbp, %rsi
	addl	%eax, %ebx
	subl	%r8d, %ebx
	movslq	%ebx, %rbx
	leaq	0(,%rbx,8), %rdx
	subq	%rbx, %rdx
	popq	%rbx
	.cfi_def_cfa_offset 24
	popq	%rbp
	.cfi_def_cfa_offset 16
	salq	$3, %rdx
	popq	%r12
	.cfi_def_cfa_offset 8
	jmp	memcpy@PLT
	.cfi_endproc
.LFE15834:
	.size	_ZN17ParticleSimulator18ReallocatableArrayINS_7IPGroupINS_8TagIpgInEEEE12ReallocInnerEi._omp_fn.2, .-_ZN17ParticleSimulator18ReallocatableArrayINS_7IPGroupINS_8TagIpgInEEEE12ReallocInnerEi._omp_fn.2
	.section	.text._ZN17ParticleSimulator12TreeForForceINS_24SEARCH_MODE_LONG_SCATTERE7Force_t5EPI_tS3_16MyMomentMonopoleS4_13MySPJMonopoleLNS_18CALC_DISTANCE_TYPEE1EE28makeInteractionListIndexLongERNS_10DomainInfoE._omp_fn.1,"axG",@progbits,_ZN17ParticleSimulator12TreeForForceINS_24SEARCH_MODE_LONG_SCATTERE7Force_t5EPI_tS3_16MyMomentMonopoleS4_13MySPJMonopoleLNS_18CALC_DISTANCE_TYPEE1EE28makeInteractionListIndexLongERNS_10DomainInfoE,comdat
	.p2align 4
	.type	_ZN17ParticleSimulator12TreeForForceINS_24SEARCH_MODE_LONG_SCATTERE7Force_t5EPI_tS3_16MyMomentMonopoleS4_13MySPJMonopoleLNS_18CALC_DISTANCE_TYPEE1EE28makeInteractionListIndexLongERNS_10DomainInfoE._omp_fn.1, @function
_ZN17ParticleSimulator12TreeForForceINS_24SEARCH_MODE_LONG_SCATTERE7Force_t5EPI_tS3_16MyMomentMonopoleS4_13MySPJMonopoleLNS_18CALC_DISTANCE_TYPEE1EE28makeInteractionListIndexLongERNS_10DomainInfoE._omp_fn.1:
.LFB15836:
	.cfi_startproc
	endbr64
	pushq	%rbp
	.cfi_def_cfa_offset 16
	.cfi_offset 6, -16
	movq	%rsp, %rbp
	.cfi_def_cfa_register 6
	pushq	%r15
	pushq	%r14
	pushq	%r13
	pushq	%r12
	pushq	%rbx
	.cfi_offset 15, -24
	.cfi_offset 14, -32
	.cfi_offset 13, -40
	.cfi_offset 12, -48
	.cfi_offset 3, -56
	movq	%rdi, %rbx
	andq	$-32, %rsp
	addq	$-128, %rsp
	call	omp_get_num_threads@PLT
	movl	%eax, %r12d
	call	omp_get_thread_num@PLT
	movl	%eax, %ecx
	movl	48(%rbx), %eax
	cltd
	idivl	%r12d
	cmpl	%edx, %ecx
	jl	.L296
.L318:
	imull	%eax, %ecx
	addl	%ecx, %edx
	leal	(%rax,%rdx), %ecx
	cmpl	%ecx, %edx
	jge	.L333
	movq	(%rbx), %rdi
	movslq	%edx, %rdx
	subl	$1, %eax
	movq	24(%rbx), %rcx
	movq	%rdx, %rsi
	addq	%rax, %rdx
	movq	%rdi, 112(%rsp)
	movq	32(%rbx), %rdi
	movq	%rdx, %rax
	salq	$5, %rsi
	movq	(%rcx), %rcx
	salq	$5, %rax
	movq	%rdi, 24(%rsp)
	movq	8(%rbx), %rdi
	leaq	40(%rcx,%rax), %rax
	movq	%rdi, 56(%rsp)
	movq	40(%rbx), %rdi
	movq	%rax, 40(%rsp)
	movq	$-8, %rax
	movq	%rdi, 16(%rsp)
	movq	16(%rbx), %rdi
	subq	%rcx, %rax
	movq	%rax, 32(%rsp)
	movq	%rdi, 48(%rsp)
	leaq	8(%rcx,%rsi), %rdi
	movq	%rdi, 104(%rsp)
	.p2align 4,,10
	.p2align 3
.L299:
	movq	104(%rsp), %rdi
	movq	32(%rsp), %rax
	addq	%rdi, %rax
	movq	%rax, 120(%rsp)
	movl	(%rdi), %eax
	testl	%eax, %eax
	jle	.L303
	movq	-8(%rdi), %rax
	movq	112(%rsp), %rdi
	movq	120(%rsp), %rsi
	movq	%rax, 96(%rsp)
	movq	2152(%rdi), %rax
	movq	%rax, 88(%rsp)
	movq	24(%rsp), %rax
	movq	(%rax), %rax
	movq	(%rax,%rsi), %rax
	movq	%rax, 80(%rsp)
	movq	2184(%rdi), %rax
	xorl	%edi, %edi
	movq	%rax, 72(%rsp)
	movq	16(%rsp), %rax
	movq	(%rax), %rax
	movq	(%rax,%rsi), %r15
	.p2align 4,,10
	.p2align 3
.L302:
	movq	96(%rsp), %rax
	movslq	(%rax,%rdi,4), %r13
	movq	88(%rsp), %rax
	movl	(%rax,%r13,4), %r10d
	movq	80(%rsp), %rax
	movl	(%rax,%rdi,4), %esi
	movl	4(%rax,%rdi,4), %r11d
	cmpl	%r11d, %esi
	jge	.L314
	movq	56(%rsp), %rax
	movq	120(%rsp), %rdx
	movslq	%r10d, %rbx
	movslq	%esi, %rcx
	leaq	0(,%rcx,4), %r14
	movl	%r11d, %r12d
	movq	(%rax), %rax
	subl	%esi, %r12d
	movq	(%rax,%rdx), %r9
	movq	112(%rsp), %rax
	leaq	0(,%rbx,4), %rdx
	movq	%rdx, 64(%rsp)
	movq	2216(%rax), %r8
	leaq	(%r9,%r14), %rax
	leaq	32(%r9,%r14), %r14
	addq	%r8, %rdx
	leaq	32(%r8,%rbx,4), %rbx
	cmpq	%r14, %rdx
	setnb	%r14b
	cmpq	%rbx, %rax
	setnb	%bl
	orb	%bl, %r14b
	je	.L311
	leal	-1(%r12), %ebx
	cmpl	$6, %ebx
	jbe	.L311
	movl	%r12d, %ebx
	xorl	%ecx, %ecx
	shrl	$3, %ebx
	salq	$5, %rbx
	.p2align 4,,10
	.p2align 3
.L313:
	vmovdqu	(%rax,%rcx), %xmm2
	vinserti128	$0x1, 16(%rax,%rcx), %ymm2, %ymm0
	vmovups	%xmm0, (%rdx,%rcx)
	vextracti128	$0x1, %ymm0, 16(%rdx,%rcx)
	addq	$32, %rcx
	cmpq	%rcx, %rbx
	jne	.L313
	movl	%r12d, %eax
	andl	$-8, %eax
	addl	%eax, %r10d
	addl	%eax, %esi
	cmpl	%eax, %r12d
	je	.L314
	movslq	%esi, %rax
	movl	(%r9,%rax,4), %edx
	movslq	%r10d, %rax
	addl	$1, %r10d
	movl	%edx, (%r8,%rax,4)
	leal	1(%rsi), %eax
	cmpl	%eax, %r11d
	jle	.L314
	cltq
	movslq	%r10d, %r10
	leaq	0(,%rax,4), %rcx
	movl	(%r9,%rax,4), %eax
	leaq	0(,%r10,4), %rdx
	movl	%eax, (%r8,%r10,4)
	leal	2(%rsi), %eax
	cmpl	%eax, %r11d
	jle	.L314
	movl	4(%r9,%rcx), %eax
	movl	%eax, 4(%r8,%rdx)
	leal	3(%rsi), %eax
	cmpl	%eax, %r11d
	jle	.L314
	movl	8(%r9,%rcx), %eax
	movl	%eax, 8(%r8,%rdx)
	leal	4(%rsi), %eax
	cmpl	%eax, %r11d
	jle	.L314
	movl	12(%r9,%rcx), %eax
	movl	%eax, 12(%r8,%rdx)
	leal	5(%rsi), %eax
	cmpl	%eax, %r11d
	jle	.L314
	movl	16(%r9,%rcx), %eax
	addl	$6, %esi
	movl	%eax, 16(%r8,%rdx)
	cmpl	%esi, %r11d
	jle	.L314
	movl	20(%r9,%rcx), %eax
	movl	%eax, 20(%r8,%rdx)
.L314:
	movq	72(%rsp), %rax
	movl	(%r15,%rdi,4), %esi
	movl	4(%r15,%rdi,4), %r11d
	movl	(%rax,%r13,4), %r10d
	cmpl	%r11d, %esi
	jge	.L307
	movq	48(%rsp), %rax
	movq	120(%rsp), %rdx
	movslq	%r10d, %rbx
	movslq	%esi, %rcx
	leaq	0(,%rcx,4), %r13
	leaq	0(,%rbx,4), %r14
	movl	%r11d, %r12d
	movq	(%rax), %rax
	subl	%esi, %r12d
	movq	(%rax,%rdx), %r9
	movq	112(%rsp), %rax
	movq	2248(%rax), %r8
	leaq	(%r9,%r13), %rdx
	leaq	32(%r9,%r13), %r13
	leaq	(%r8,%r14), %rax
	leaq	32(%r8,%rbx,4), %rbx
	cmpq	%r13, %rax
	setnb	%r13b
	cmpq	%rbx, %rdx
	setnb	%bl
	orb	%bl, %r13b
	je	.L304
	leal	-1(%r12), %ebx
	cmpl	$6, %ebx
	jbe	.L304
	movl	%r12d, %ebx
	xorl	%ecx, %ecx
	shrl	$3, %ebx
	salq	$5, %rbx
	.p2align 4,,10
	.p2align 3
.L306:
	vmovdqu	(%rdx,%rcx), %xmm1
	vinserti128	$0x1, 16(%rdx,%rcx), %ymm1, %ymm0
	vmovups	%xmm0, (%rax,%rcx)
	vextracti128	$0x1, %ymm0, 16(%rax,%rcx)
	addq	$32, %rcx
	cmpq	%rbx, %rcx
	jne	.L306
	movl	%r12d, %eax
	andl	$-8, %eax
	addl	%eax, %r10d
	addl	%eax, %esi
	cmpl	%r12d, %eax
	je	.L307
	movslq	%esi, %rax
	movl	(%r9,%rax,4), %edx
	movslq	%r10d, %rax
	addl	$1, %r10d
	movl	%edx, (%r8,%rax,4)
	leal	1(%rsi), %eax
	cmpl	%eax, %r11d
	jle	.L307
	cltq
	movslq	%r10d, %r10
	leaq	0(,%rax,4), %rcx
	movl	(%r9,%rax,4), %eax
	leaq	0(,%r10,4), %rdx
	movl	%eax, (%r8,%r10,4)
	leal	2(%rsi), %eax
	cmpl	%eax, %r11d
	jle	.L307
	movl	4(%r9,%rcx), %eax
	movl	%eax, 4(%r8,%rdx)
	leal	3(%rsi), %eax
	cmpl	%eax, %r11d
	jle	.L307
	movl	8(%r9,%rcx), %eax
	movl	%eax, 8(%r8,%rdx)
	leal	4(%rsi), %eax
	cmpl	%eax, %r11d
	jle	.L307
	movl	12(%r9,%rcx), %eax
	movl	%eax, 12(%r8,%rdx)
	leal	5(%rsi), %eax
	cmpl	%eax, %r11d
	jle	.L307
	movl	16(%r9,%rcx), %eax
	addl	$6, %esi
	movl	%eax, 16(%r8,%rdx)
	cmpl	%esi, %r11d
	jle	.L307
	movl	20(%r9,%rcx), %eax
	movl	%eax, 20(%r8,%rdx)
.L307:
	movq	104(%rsp), %rax
	addq	$1, %rdi
	cmpl	%edi, (%rax)
	jg	.L302
.L303:
	addq	$32, 104(%rsp)
	movq	104(%rsp), %rax
	cmpq	40(%rsp), %rax
	jne	.L299
	vzeroupper
.L333:
	leaq	-40(%rbp), %rsp
	popq	%rbx
	popq	%r12
	popq	%r13
	popq	%r14
	popq	%r15
	popq	%rbp
	.cfi_remember_state
	.cfi_def_cfa 7, 8
	ret
	.p2align 4,,10
	.p2align 3
.L304:
	.cfi_restore_state
	movq	%rcx, %rax
	negq	%rax
	leaq	(%r14,%rax,4), %rax
	addq	%rax, %r8
	.p2align 4,,10
	.p2align 3
.L310:
	movl	(%r9,%rcx,4), %eax
	movl	%eax, (%r8,%rcx,4)
	addq	$1, %rcx
	cmpl	%ecx, %r11d
	jg	.L310
	jmp	.L307
	.p2align 4,,10
	.p2align 3
.L311:
	movq	64(%rsp), %rsi
	movq	%rcx, %rax
	negq	%rax
	leaq	(%rsi,%rax,4), %rax
	addq	%rax, %r8
	.p2align 4,,10
	.p2align 3
.L317:
	movl	(%r9,%rcx,4), %eax
	movl	%eax, (%r8,%rcx,4)
	addq	$1, %rcx
	cmpl	%ecx, %r11d
	jg	.L317
	jmp	.L314
.L296:
	addl	$1, %eax
	xorl	%edx, %edx
	jmp	.L318
	.cfi_endproc
.LFE15836:
	.size	_ZN17ParticleSimulator12TreeForForceINS_24SEARCH_MODE_LONG_SCATTERE7Force_t5EPI_tS3_16MyMomentMonopoleS4_13MySPJMonopoleLNS_18CALC_DISTANCE_TYPEE1EE28makeInteractionListIndexLongERNS_10DomainInfoE._omp_fn.1, .-_ZN17ParticleSimulator12TreeForForceINS_24SEARCH_MODE_LONG_SCATTERE7Force_t5EPI_tS3_16MyMomentMonopoleS4_13MySPJMonopoleLNS_18CALC_DISTANCE_TYPEE1EE28makeInteractionListIndexLongERNS_10DomainInfoE._omp_fn.1
	.section	.text._ZN17ParticleSimulator12TreeForForceINS_24SEARCH_MODE_LONG_SCATTERE7Force_t5EPI_tS3_16MyMomentMonopoleS4_13MySPJMonopoleLNS_18CALC_DISTANCE_TYPEE1EE23mortonSortLocalTreeOnlyEb._omp_fn.1,"axG",@progbits,_ZN17ParticleSimulator12TreeForForceINS_24SEARCH_MODE_LONG_SCATTERE7Force_t5EPI_tS3_16MyMomentMonopoleS4_13MySPJMonopoleLNS_18CALC_DISTANCE_TYPEE1EE23mortonSortLocalTreeOnlyEb,comdat
	.p2align 4
	.type	_ZN17ParticleSimulator12TreeForForceINS_24SEARCH_MODE_LONG_SCATTERE7Force_t5EPI_tS3_16MyMomentMonopoleS4_13MySPJMonopoleLNS_18CALC_DISTANCE_TYPEE1EE23mortonSortLocalTreeOnlyEb._omp_fn.1, @function
_ZN17ParticleSimulator12TreeForForceINS_24SEARCH_MODE_LONG_SCATTERE7Force_t5EPI_tS3_16MyMomentMonopoleS4_13MySPJMonopoleLNS_18CALC_DISTANCE_TYPEE1EE23mortonSortLocalTreeOnlyEb._omp_fn.1:
.LFB15838:
	.cfi_startproc
	endbr64
	pushq	%rbp
	.cfi_def_cfa_offset 16
	.cfi_offset 6, -16
	pushq	%rbx
	.cfi_def_cfa_offset 24
	.cfi_offset 3, -24
	subq	$8, %rsp
	.cfi_def_cfa_offset 32
	movq	(%rdi), %rbp
	call	omp_get_num_threads@PLT
	movl	%eax, %ebx
	call	omp_get_thread_num@PLT
	movl	%eax, %ecx
	movl	816(%rbp), %eax
	cltd
	idivl	%ebx
	cmpl	%edx, %ecx
	jl	.L336
.L339:
	imull	%eax, %ecx
	addl	%ecx, %edx
	leal	(%rax,%rdx), %ecx
	cmpl	%ecx, %edx
	jge	.L341
	movslq	%edx, %rdx
	movq	1112(%rbp), %r8
	subl	$1, %eax
	movq	1176(%rbp), %rsi
	leaq	(%rdx,%rdx,2), %rcx
	movq	1240(%rbp), %r10
	movq	1304(%rbp), %r9
	leaq	(%rdx,%rcx,4), %rcx
	leaq	(%r8,%rdx,4), %rdi
	addq	%rax, %rdx
	salq	$3, %rcx
	leaq	4(%r8,%rdx,4), %r11
	addq	%rcx, %rsi
	addq	952(%rbp), %rcx
	.p2align 4,,10
	.p2align 3
.L338:
	movslq	(%rdi), %rax
	addq	$4, %rdi
	addq	$104, %rsi
	addq	$104, %rcx
	leaq	(%rax,%rax,2), %rdx
	leaq	(%rax,%rdx,4), %rax
	salq	$3, %rax
	leaq	(%r10,%rax), %rdx
	addq	%r9, %rax
	vmovsd	(%rdx), %xmm0
	movq	80(%rdx), %r8
	vmovsd	%xmm0, -104(%rsi)
	vmovsd	8(%rdx), %xmm0
	vmovsd	%xmm0, -96(%rsi)
	vmovsd	16(%rdx), %xmm0
	vmovsd	%xmm0, -88(%rsi)
	vmovsd	24(%rdx), %xmm0
	vmovsd	%xmm0, -80(%rsi)
	vmovsd	32(%rdx), %xmm0
	vmovsd	%xmm0, -72(%rsi)
	vmovsd	40(%rdx), %xmm0
	vmovsd	%xmm0, -64(%rsi)
	vmovsd	48(%rdx), %xmm0
	vmovsd	%xmm0, -56(%rsi)
	vmovsd	56(%rdx), %xmm0
	vmovsd	%xmm0, -48(%rsi)
	vmovsd	64(%rdx), %xmm0
	vmovsd	%xmm0, -40(%rsi)
	vmovsd	72(%rdx), %xmm0
	movq	%r8, -24(%rsi)
	vmovsd	%xmm0, -32(%rsi)
	vmovupd	88(%rdx), %xmm1
	vmovups	%xmm1, -16(%rsi)
	vmovsd	(%rax), %xmm0
	vmovsd	%xmm0, -104(%rcx)
	vmovsd	8(%rax), %xmm0
	vmovsd	%xmm0, -96(%rcx)
	vmovsd	16(%rax), %xmm0
	vmovsd	%xmm0, -88(%rcx)
	vmovsd	24(%rax), %xmm0
	vmovsd	%xmm0, -80(%rcx)
	vmovsd	32(%rax), %xmm0
	movq	80(%rax), %rdx
	vmovsd	%xmm0, -72(%rcx)
	vmovsd	40(%rax), %xmm0
	vmovsd	%xmm0, -64(%rcx)
	vmovsd	48(%rax), %xmm0
	vmovsd	%xmm0, -56(%rcx)
	vmovsd	56(%rax), %xmm0
	vmovsd	%xmm0, -48(%rcx)
	vmovsd	64(%rax), %xmm0
	vmovsd	%xmm0, -40(%rcx)
	vmovsd	72(%rax), %xmm0
	movq	%rdx, -24(%rcx)
	vmovsd	%xmm0, -32(%rcx)
	vmovupd	88(%rax), %xmm2
	vmovups	%xmm2, -16(%rcx)
	cmpq	%r11, %rdi
	jne	.L338
.L341:
	addq	$8, %rsp
	.cfi_remember_state
	.cfi_def_cfa_offset 24
	popq	%rbx
	.cfi_def_cfa_offset 16
	popq	%rbp
	.cfi_def_cfa_offset 8
	ret
	.p2align 4,,10
	.p2align 3
.L336:
	.cfi_restore_state
	addl	$1, %eax
	xorl	%edx, %edx
	jmp	.L339
	.cfi_endproc
.LFE15838:
	.size	_ZN17ParticleSimulator12TreeForForceINS_24SEARCH_MODE_LONG_SCATTERE7Force_t5EPI_tS3_16MyMomentMonopoleS4_13MySPJMonopoleLNS_18CALC_DISTANCE_TYPEE1EE23mortonSortLocalTreeOnlyEb._omp_fn.1, .-_ZN17ParticleSimulator12TreeForForceINS_24SEARCH_MODE_LONG_SCATTERE7Force_t5EPI_tS3_16MyMomentMonopoleS4_13MySPJMonopoleLNS_18CALC_DISTANCE_TYPEE1EE23mortonSortLocalTreeOnlyEb._omp_fn.1
	.text
	.p2align 4
	.type	_ZN17ParticleSimulator18ReallocatableArrayINS_12TreeParticleEE12ReallocInnerEi._omp_fn.0, @function
_ZN17ParticleSimulator18ReallocatableArrayINS_12TreeParticleEE12ReallocInnerEi._omp_fn.0:
.LFB15839:
	.cfi_startproc
	endbr64
	pushq	%rbp
	.cfi_def_cfa_offset 16
	.cfi_offset 6, -16
	pushq	%rbx
	.cfi_def_cfa_offset 24
	.cfi_offset 3, -24
	movq	%rdi, %rbx
	subq	$8, %rsp
	.cfi_def_cfa_offset 32
	call	omp_get_num_threads@PLT
	movl	%eax, %ebp
	call	omp_get_thread_num@PLT
	movl	%eax, %ecx
	movq	(%rbx), %rax
	movl	8(%rax), %eax
	cltd
	idivl	%ebp
	cmpl	%edx, %ecx
	jl	.L344
.L347:
	imull	%eax, %ecx
	addl	%ecx, %edx
	leal	(%rax,%rdx), %ecx
	cmpl	%ecx, %edx
	jge	.L349
	movslq	%edx, %rdx
	subl	$1, %eax
	movq	16(%rbx), %r8
	movq	8(%rbx), %rsi
	leaq	1(%rdx,%rax), %rax
	leaq	(%rdx,%rdx,2), %rcx
	leaq	(%rax,%rax,2), %rdx
	salq	$3, %rcx
	salq	$3, %rdx
	.p2align 4,,10
	.p2align 3
.L346:
	vmovdqu	(%rsi,%rcx), %xmm0
	vmovups	%xmm0, (%r8,%rcx)
	movl	16(%rsi,%rcx), %eax
	movl	%eax, 16(%r8,%rcx)
	addq	$24, %rcx
	cmpq	%rcx, %rdx
	jne	.L346
.L349:
	addq	$8, %rsp
	.cfi_remember_state
	.cfi_def_cfa_offset 24
	popq	%rbx
	.cfi_def_cfa_offset 16
	popq	%rbp
	.cfi_def_cfa_offset 8
	ret
	.p2align 4,,10
	.p2align 3
.L344:
	.cfi_restore_state
	addl	$1, %eax
	xorl	%edx, %edx
	jmp	.L347
	.cfi_endproc
.LFE15839:
	.size	_ZN17ParticleSimulator18ReallocatableArrayINS_12TreeParticleEE12ReallocInnerEi._omp_fn.0, .-_ZN17ParticleSimulator18ReallocatableArrayINS_12TreeParticleEE12ReallocInnerEi._omp_fn.0
	.p2align 4
	.type	_ZN17ParticleSimulator18ReallocatableArrayINS_12TreeParticleEE12ReallocInnerEi._omp_fn.1, @function
_ZN17ParticleSimulator18ReallocatableArrayINS_12TreeParticleEE12ReallocInnerEi._omp_fn.1:
.LFB15840:
	.cfi_startproc
	endbr64
	pushq	%r12
	.cfi_def_cfa_offset 16
	.cfi_offset 12, -16
	pushq	%rbp
	.cfi_def_cfa_offset 24
	.cfi_offset 6, -24
	pushq	%rbx
	.cfi_def_cfa_offset 32
	.cfi_offset 3, -32
	movq	(%rdi), %r12
	movq	8(%rdi), %rbp
	call	omp_get_thread_num@PLT
	movl	%eax, %ebx
	call	omp_get_num_threads@PLT
	movl	%ebx, %ecx
	movl	%eax, %r8d
	movl	12(%r12), %eax
	cltd
	idivl	%r8d
	movl	%eax, %r8d
	imull	%ebx, %r8d
	cmpl	%ebx, %edx
	cmovle	%edx, %ecx
	addl	$1, %ebx
	addl	%r8d, %ecx
	movslq	%ecx, %rsi
	leaq	(%rsi,%rsi,2), %rsi
	salq	$3, %rsi
	cmpl	%edx, %ebx
	cmovg	%edx, %ebx
	addl	%r8d, %eax
	leaq	0(%rbp,%rsi), %rdi
	addq	(%r12), %rsi
	addl	%eax, %ebx
	subl	%ecx, %ebx
	movslq	%ebx, %rbx
	leaq	(%rbx,%rbx,2), %rdx
	popq	%rbx
	.cfi_def_cfa_offset 24
	popq	%rbp
	.cfi_def_cfa_offset 16
	salq	$3, %rdx
	popq	%r12
	.cfi_def_cfa_offset 8
	jmp	memcpy@PLT
	.cfi_endproc
.LFE15840:
	.size	_ZN17ParticleSimulator18ReallocatableArrayINS_12TreeParticleEE12ReallocInnerEi._omp_fn.1, .-_ZN17ParticleSimulator18ReallocatableArrayINS_12TreeParticleEE12ReallocInnerEi._omp_fn.1
	.p2align 4
	.type	_ZN17ParticleSimulator18ReallocatableArrayINS_12TreeParticleEE12ReallocInnerEi._omp_fn.2, @function
_ZN17ParticleSimulator18ReallocatableArrayINS_12TreeParticleEE12ReallocInnerEi._omp_fn.2:
.LFB15841:
	.cfi_startproc
	endbr64
	pushq	%r12
	.cfi_def_cfa_offset 16
	.cfi_offset 12, -16
	pushq	%rbp
	.cfi_def_cfa_offset 24
	.cfi_offset 6, -24
	pushq	%rbx
	.cfi_def_cfa_offset 32
	.cfi_offset 3, -32
	movq	8(%rdi), %rbp
	movq	(%rdi), %r12
	call	omp_get_thread_num@PLT
	movl	%eax, %ebx
	call	omp_get_num_threads@PLT
	movl	%ebx, %ecx
	movq	(%r12), %rdi
	movl	%eax, %r8d
	movl	8(%r12), %eax
	cltd
	idivl	%r8d
	movl	%eax, %r8d
	imull	%ebx, %r8d
	cmpl	%ebx, %edx
	cmovle	%edx, %ecx
	addl	$1, %ebx
	addl	%r8d, %ecx
	movslq	%ecx, %rsi
	leaq	(%rsi,%rsi,2), %rsi
	salq	$3, %rsi
	addq	%rsi, %rdi
	cmpl	%edx, %ebx
	cmovg	%edx, %ebx
	addl	%r8d, %eax
	addq	%rbp, %rsi
	addl	%eax, %ebx
	subl	%ecx, %ebx
	movslq	%ebx, %rbx
	leaq	(%rbx,%rbx,2), %rdx
	popq	%rbx
	.cfi_def_cfa_offset 24
	popq	%rbp
	.cfi_def_cfa_offset 16
	salq	$3, %rdx
	popq	%r12
	.cfi_def_cfa_offset 8
	jmp	memcpy@PLT
	.cfi_endproc
.LFE15841:
	.size	_ZN17ParticleSimulator18ReallocatableArrayINS_12TreeParticleEE12ReallocInnerEi._omp_fn.2, .-_ZN17ParticleSimulator18ReallocatableArrayINS_12TreeParticleEE12ReallocInnerEi._omp_fn.2
	.section	.text._ZN17ParticleSimulator12MergeSortOmpINS_12TreeParticleEZNS_12TreeForForceINS_24SEARCH_MODE_LONG_SCATTERE7Force_t5EPI_tS5_16MyMomentMonopoleS6_13MySPJMonopoleLNS_18CALC_DISTANCE_TYPEE1EE23mortonSortLocalTreeOnlyEbEUlRKS1_SB_E_EEvRNS_18ReallocatableArrayIT_EEiiT0_._omp_fn.1,"axG",@progbits,_ZN17ParticleSimulator12MergeSortOmpINS_12TreeParticleEZNS_12TreeForForceINS_24SEARCH_MODE_LONG_SCATTERE7Force_t5EPI_tS5_16MyMomentMonopoleS6_13MySPJMonopoleLNS_18CALC_DISTANCE_TYPEE1EE23mortonSortLocalTreeOnlyEbEUlRKS1_SB_E_EEvRNS_18ReallocatableArrayIT_EEiiT0_,comdat
	.p2align 4
	.type	_ZN17ParticleSimulator12MergeSortOmpINS_12TreeParticleEZNS_12TreeForForceINS_24SEARCH_MODE_LONG_SCATTERE7Force_t5EPI_tS5_16MyMomentMonopoleS6_13MySPJMonopoleLNS_18CALC_DISTANCE_TYPEE1EE23mortonSortLocalTreeOnlyEbEUlRKS1_SB_E_EEvRNS_18ReallocatableArrayIT_EEiiT0_._omp_fn.1, @function
_ZN17ParticleSimulator12MergeSortOmpINS_12TreeParticleEZNS_12TreeForForceINS_24SEARCH_MODE_LONG_SCATTERE7Force_t5EPI_tS5_16MyMomentMonopoleS6_13MySPJMonopoleLNS_18CALC_DISTANCE_TYPEE1EE23mortonSortLocalTreeOnlyEbEUlRKS1_SB_E_EEvRNS_18ReallocatableArrayIT_EEiiT0_._omp_fn.1:
.LFB15843:
	.cfi_startproc
	endbr64
	pushq	%r13
	.cfi_def_cfa_offset 16
	.cfi_offset 13, -16
	pushq	%r12
	.cfi_def_cfa_offset 24
	.cfi_offset 12, -24
	pushq	%rbp
	.cfi_def_cfa_offset 32
	.cfi_offset 6, -32
	pushq	%rbx
	.cfi_def_cfa_offset 40
	.cfi_offset 3, -40
	movq	%rdi, %rbx
	subq	$8, %rsp
	.cfi_def_cfa_offset 48
	movq	(%rdi), %rax
	movslq	32(%rdi), %r13
	movq	(%rax), %rax
	movl	(%rax,%r13,4), %r12d
	call	omp_get_num_threads@PLT
	movl	%eax, %ebp
	call	omp_get_thread_num@PLT
	movl	%eax, %esi
	movq	8(%rbx), %rax
	movq	(%rax), %rax
	movl	(%rax,%r13,4), %eax
	subl	%r12d, %eax
	cltd
	idivl	%ebp
	cmpl	%edx, %esi
	jl	.L356
.L360:
	imull	%eax, %esi
	addl	%esi, %edx
	addl	%edx, %eax
	cmpl	%eax, %edx
	jge	.L362
	movslq	36(%rbx), %rsi
	addl	%r12d, %edx
	leal	(%r12,%rax), %ecx
	movq	16(%rbx), %rax
	movslq	%edx, %rdi
	movq	24(%rbx), %r9
	movq	(%rax), %rax
	addq	%rdi, %rsi
	leaq	(%rsi,%rsi,2), %rsi
	leaq	(%rax,%rsi,8), %r8
	movslq	40(%rbx), %rax
	addq	%rdi, %rax
	leaq	(%rax,%rax,2), %rsi
	movq	(%r9), %rax
	leaq	(%rax,%rsi,8), %rsi
	xorl	%eax, %eax
	.p2align 4,,10
	.p2align 3
.L358:
	vmovdqu	(%r8,%rax), %xmm0
	addl	$1, %edx
	vmovups	%xmm0, (%rsi,%rax)
	movl	16(%r8,%rax), %edi
	movl	%edi, 16(%rsi,%rax)
	addq	$24, %rax
	cmpl	%edx, %ecx
	jg	.L358
.L362:
	addq	$8, %rsp
	.cfi_remember_state
	.cfi_def_cfa_offset 40
	popq	%rbx
	.cfi_def_cfa_offset 32
	popq	%rbp
	.cfi_def_cfa_offset 24
	popq	%r12
	.cfi_def_cfa_offset 16
	popq	%r13
	.cfi_def_cfa_offset 8
	ret
	.p2align 4,,10
	.p2align 3
.L356:
	.cfi_restore_state
	addl	$1, %eax
	xorl	%edx, %edx
	jmp	.L360
	.cfi_endproc
.LFE15843:
	.size	_ZN17ParticleSimulator12MergeSortOmpINS_12TreeParticleEZNS_12TreeForForceINS_24SEARCH_MODE_LONG_SCATTERE7Force_t5EPI_tS5_16MyMomentMonopoleS6_13MySPJMonopoleLNS_18CALC_DISTANCE_TYPEE1EE23mortonSortLocalTreeOnlyEbEUlRKS1_SB_E_EEvRNS_18ReallocatableArrayIT_EEiiT0_._omp_fn.1, .-_ZN17ParticleSimulator12MergeSortOmpINS_12TreeParticleEZNS_12TreeForForceINS_24SEARCH_MODE_LONG_SCATTERE7Force_t5EPI_tS5_16MyMomentMonopoleS6_13MySPJMonopoleLNS_18CALC_DISTANCE_TYPEE1EE23mortonSortLocalTreeOnlyEbEUlRKS1_SB_E_EEvRNS_18ReallocatableArrayIT_EEiiT0_._omp_fn.1
	.section	.text._ZN17ParticleSimulator12MergeSortOmpINS_12TreeParticleEZNS_12TreeForForceINS_24SEARCH_MODE_LONG_SCATTERE7Force_t5EPI_tS5_16MyMomentMonopoleS6_13MySPJMonopoleLNS_18CALC_DISTANCE_TYPEE1EE23mortonSortLocalTreeOnlyEbEUlRKS1_SB_E_EEvRNS_18ReallocatableArrayIT_EEiiT0_._omp_fn.2,"axG",@progbits,_ZN17ParticleSimulator12MergeSortOmpINS_12TreeParticleEZNS_12TreeForForceINS_24SEARCH_MODE_LONG_SCATTERE7Force_t5EPI_tS5_16MyMomentMonopoleS6_13MySPJMonopoleLNS_18CALC_DISTANCE_TYPEE1EE23mortonSortLocalTreeOnlyEbEUlRKS1_SB_E_EEvRNS_18ReallocatableArrayIT_EEiiT0_,comdat
	.p2align 4
	.type	_ZN17ParticleSimulator12MergeSortOmpINS_12TreeParticleEZNS_12TreeForForceINS_24SEARCH_MODE_LONG_SCATTERE7Force_t5EPI_tS5_16MyMomentMonopoleS6_13MySPJMonopoleLNS_18CALC_DISTANCE_TYPEE1EE23mortonSortLocalTreeOnlyEbEUlRKS1_SB_E_EEvRNS_18ReallocatableArrayIT_EEiiT0_._omp_fn.2, @function
_ZN17ParticleSimulator12MergeSortOmpINS_12TreeParticleEZNS_12TreeForForceINS_24SEARCH_MODE_LONG_SCATTERE7Force_t5EPI_tS5_16MyMomentMonopoleS6_13MySPJMonopoleLNS_18CALC_DISTANCE_TYPEE1EE23mortonSortLocalTreeOnlyEbEUlRKS1_SB_E_EEvRNS_18ReallocatableArrayIT_EEiiT0_._omp_fn.2:
.LFB15844:
	.cfi_startproc
	endbr64
	pushq	%rbp
	.cfi_def_cfa_offset 16
	.cfi_offset 6, -16
	pushq	%rbx
	.cfi_def_cfa_offset 24
	.cfi_offset 3, -24
	movq	%rdi, %rbx
	subq	$8, %rsp
	.cfi_def_cfa_offset 32
	call	omp_get_num_threads@PLT
	movl	%eax, %ebp
	call	omp_get_thread_num@PLT
	movl	%eax, %ecx
	movl	20(%rbx), %eax
	cltd
	idivl	%ebp
	cmpl	%edx, %ecx
	jl	.L365
.L369:
	imull	%eax, %ecx
	addl	%ecx, %edx
	leal	(%rax,%rdx), %ecx
	cmpl	%ecx, %edx
	jge	.L371
	subl	$1, %eax
	movslq	%edx, %rdx
	movq	(%rbx), %rsi
	leaq	3(%rax,%rax,2), %r8
	movq	8(%rbx), %rax
	leaq	(%rdx,%rdx,2), %rcx
	salq	$3, %r8
	movq	(%rax), %rax
	leaq	(%rax,%rcx,8), %rcx
	movslq	16(%rbx), %rax
	addq	%rax, %rdx
	movq	(%rsi), %rax
	leaq	(%rdx,%rdx,2), %rdx
	leaq	(%rax,%rdx,8), %rdx
	xorl	%eax, %eax
	.p2align 4,,10
	.p2align 3
.L367:
	vmovdqu	(%rcx,%rax), %xmm0
	vmovups	%xmm0, (%rdx,%rax)
	movl	16(%rcx,%rax), %esi
	movl	%esi, 16(%rdx,%rax)
	addq	$24, %rax
	cmpq	%rax, %r8
	jne	.L367
.L371:
	addq	$8, %rsp
	.cfi_remember_state
	.cfi_def_cfa_offset 24
	popq	%rbx
	.cfi_def_cfa_offset 16
	popq	%rbp
	.cfi_def_cfa_offset 8
	ret
	.p2align 4,,10
	.p2align 3
.L365:
	.cfi_restore_state
	addl	$1, %eax
	xorl	%edx, %edx
	jmp	.L369
	.cfi_endproc
.LFE15844:
	.size	_ZN17ParticleSimulator12MergeSortOmpINS_12TreeParticleEZNS_12TreeForForceINS_24SEARCH_MODE_LONG_SCATTERE7Force_t5EPI_tS5_16MyMomentMonopoleS6_13MySPJMonopoleLNS_18CALC_DISTANCE_TYPEE1EE23mortonSortLocalTreeOnlyEbEUlRKS1_SB_E_EEvRNS_18ReallocatableArrayIT_EEiiT0_._omp_fn.2, .-_ZN17ParticleSimulator12MergeSortOmpINS_12TreeParticleEZNS_12TreeForForceINS_24SEARCH_MODE_LONG_SCATTERE7Force_t5EPI_tS5_16MyMomentMonopoleS6_13MySPJMonopoleLNS_18CALC_DISTANCE_TYPEE1EE23mortonSortLocalTreeOnlyEbEUlRKS1_SB_E_EEvRNS_18ReallocatableArrayIT_EEiiT0_._omp_fn.2
	.section	.rodata._ZN17ParticleSimulator16MergeSortOmpImplINS_12TreeParticleEZNS_12TreeForForceINS_24SEARCH_MODE_LONG_SCATTERE7Force_t5EPI_tS5_16MyMomentMonopoleS6_13MySPJMonopoleLNS_18CALC_DISTANCE_TYPEE1EE23mortonSortLocalTreeOnlyEbEUlRKS1_SB_E_EEvPT_SE_SE_SE_SE_T0_._omp_fn.0.str1.8,"aMS",@progbits,1
	.align 8
.LC3:
	.ascii	"void ParticleSimulator::FindSeparator(int&, int&, const T*, "
	.ascii	"const T*, int, int, int, Tpred) [with T = ParticleSimulator:"
	.ascii	":TreeParticle; Tpred = ParticleSimulator::TreeForForce<TSM, "
	.ascii	"Tforce, Tepi, Tepj, Tmomloc, Tmomglb, Tspj, CALC_DISTANCE_TY"
	.ascii	"PE>::mortonSortLocalTreeOnly(bool) [with TSM = ParticleSimul"
	.ascii	"ator::SEARCH_MODE_LONG_SCATTER; Tforce = Force_t; Tepi = EPI"
	.ascii	"_t; Tepj = EPI_t; Tmomloc = MyMomentMo"
	.string	"nopole; Tmomglb = MyMomentMonopole; Tspj = MySPJMonopole; ParticleSimulator::CALC_DISTANCE_TYPE CALC_DISTANCE_TYPE = ParticleSimulator::CALC_DISTANCE_TYPE_NEAREST_X]::<lambda(const ParticleSimulator::TreeParticle&, const ParticleSimulator::TreeParticle&)>]"
	.section	.rodata._ZN17ParticleSimulator16MergeSortOmpImplINS_12TreeParticleEZNS_12TreeForForceINS_24SEARCH_MODE_LONG_SCATTERE7Force_t5EPI_tS5_16MyMomentMonopoleS6_13MySPJMonopoleLNS_18CALC_DISTANCE_TYPEE1EE23mortonSortLocalTreeOnlyEbEUlRKS1_SB_E_EEvPT_SE_SE_SE_SE_T0_._omp_fn.0.str1.1,"aMS",@progbits,1
.LC4:
	.string	"../../../src/sort.hpp"
.LC5:
	.string	"loop<50"
	.section	.text._ZN17ParticleSimulator16MergeSortOmpImplINS_12TreeParticleEZNS_12TreeForForceINS_24SEARCH_MODE_LONG_SCATTERE7Force_t5EPI_tS5_16MyMomentMonopoleS6_13MySPJMonopoleLNS_18CALC_DISTANCE_TYPEE1EE23mortonSortLocalTreeOnlyEbEUlRKS1_SB_E_EEvPT_SE_SE_SE_SE_T0_._omp_fn.0,"axG",@progbits,_ZN17ParticleSimulator12MergeSortOmpINS_12TreeParticleEZNS_12TreeForForceINS_24SEARCH_MODE_LONG_SCATTERE7Force_t5EPI_tS5_16MyMomentMonopoleS6_13MySPJMonopoleLNS_18CALC_DISTANCE_TYPEE1EE23mortonSortLocalTreeOnlyEbEUlRKS1_SB_E_EEvRNS_18ReallocatableArrayIT_EEiiT0_,comdat
	.p2align 4
	.type	_ZN17ParticleSimulator16MergeSortOmpImplINS_12TreeParticleEZNS_12TreeForForceINS_24SEARCH_MODE_LONG_SCATTERE7Force_t5EPI_tS5_16MyMomentMonopoleS6_13MySPJMonopoleLNS_18CALC_DISTANCE_TYPEE1EE23mortonSortLocalTreeOnlyEbEUlRKS1_SB_E_EEvPT_SE_SE_SE_SE_T0_._omp_fn.0, @function
_ZN17ParticleSimulator16MergeSortOmpImplINS_12TreeParticleEZNS_12TreeForForceINS_24SEARCH_MODE_LONG_SCATTERE7Force_t5EPI_tS5_16MyMomentMonopoleS6_13MySPJMonopoleLNS_18CALC_DISTANCE_TYPEE1EE23mortonSortLocalTreeOnlyEbEUlRKS1_SB_E_EEvPT_SE_SE_SE_SE_T0_._omp_fn.0:
.LFB15845:
	.cfi_startproc
	endbr64
	pushq	%r15
	.cfi_def_cfa_offset 16
	.cfi_offset 15, -16
	pushq	%r14
	.cfi_def_cfa_offset 24
	.cfi_offset 14, -24
	pushq	%r13
	.cfi_def_cfa_offset 32
	.cfi_offset 13, -32
	pushq	%r12
	.cfi_def_cfa_offset 40
	.cfi_offset 12, -40
	pushq	%rbp
	.cfi_def_cfa_offset 48
	.cfi_offset 6, -48
	pushq	%rbx
	.cfi_def_cfa_offset 56
	.cfi_offset 3, -56
	movq	%rdi, %rbx
	subq	$56, %rsp
	.cfi_def_cfa_offset 112
	movq	(%rdi), %rax
	movslq	60(%rdi), %rbp
	movslq	56(%rdi), %r12
	movq	16(%rdi), %r13
	movq	8(%rdi), %r14
	movq	%rax, (%rsp)
	call	omp_get_thread_num@PLT
	movl	%eax, %r15d
	movl	64(%rbx), %eax
	leal	-1(%rax), %ecx
	movslq	%r15d, %rax
	leaq	0(,%rax,4), %rdi
	movl	%ecx, 12(%rsp)
	movq	%rdi, 24(%rsp)
	cmpl	%ecx, %r15d
	jl	.L374
.L393:
	movq	%rax, 16(%rsp)
	call	GOMP_barrier@PLT
	testl	%r15d, %r15d
	movq	16(%rsp), %rax
	je	.L413
	movq	48(%rbx), %rdx
	movq	24(%rsp), %rsi
	movq	(%rdx), %rdx
	movslq	-4(%rdx,%rsi), %rdx
	leaq	(%rdx,%rdx,2), %rdx
	leaq	0(%r13,%rdx,8), %r8
	movq	40(%rbx), %rdx
	movq	(%rdx), %rdx
	movslq	-4(%rdx,%rsi), %rdx
	leaq	(%rdx,%rdx,2), %rdx
	leaq	(%r14,%rdx,8), %rsi
.L386:
	cmpl	12(%rsp), %r15d
	je	.L385
	movq	40(%rbx), %rdx
	movq	(%rdx), %rdx
	movslq	(%rdx,%rax,4), %r12
	movq	48(%rbx), %rdx
	movq	(%rdx), %rdx
	movslq	(%rdx,%rax,4), %rbp
.L385:
	movq	24(%rbx), %rdx
	movq	(%rsp), %rcx
	movq	(%rdx), %rdx
	movslq	(%rdx,%rax,4), %rax
	leaq	(%rax,%rax,2), %rax
	leaq	(%rcx,%rax,8), %rdi
	leaq	0(%rbp,%rbp,2), %rax
	leaq	0(%r13,%rax,8), %rbx
	leaq	(%r12,%r12,2), %rax
	leaq	(%r14,%rax,8), %rax
	cmpq	%rsi, %rax
	jne	.L412
	jmp	.L377
	.p2align 4,,10
	.p2align 3
.L414:
	movq	8(%r8), %r9
	cmpq	%r9, 8(%rsi)
	jbe	.L397
	cmpq	%rdx, %rcx
	je	.L378
.L397:
	vmovdqu	(%rsi), %xmm0
	addq	$24, %rsi
	addq	$24, %rdi
	vmovups	%xmm0, -24(%rdi)
	movl	-8(%rsi), %edx
	movl	%edx, -8(%rdi)
	cmpq	%rsi, %rax
	je	.L377
.L412:
	cmpq	%r8, %rbx
	je	.L377
	movq	(%rsi), %rcx
	movq	(%r8), %rdx
	cmpq	%rdx, %rcx
	jbe	.L414
.L378:
	vmovdqu	(%r8), %xmm1
	addq	$24, %rdi
	addq	$24, %r8
	vmovups	%xmm1, -24(%rdi)
	movl	-8(%r8), %edx
	movl	%edx, -8(%rdi)
	cmpq	%rsi, %rax
	jne	.L412
.L377:
	movq	%rax, %rbp
	subq	%rsi, %rbp
	cmpq	%rsi, %rax
	je	.L383
	movq	%rbp, %rdx
	movq	%r8, (%rsp)
	call	memmove@PLT
	movq	(%rsp), %r8
	movq	%rax, %rdi
.L383:
	cmpq	%r8, %rbx
	je	.L410
	addq	$56, %rsp
	.cfi_remember_state
	.cfi_def_cfa_offset 56
	subq	%r8, %rbx
	addq	%rbp, %rdi
	movq	%r8, %rsi
	movq	%rbx, %rdx
	popq	%rbx
	.cfi_def_cfa_offset 48
	popq	%rbp
	.cfi_def_cfa_offset 40
	popq	%r12
	.cfi_def_cfa_offset 32
	popq	%r13
	.cfi_def_cfa_offset 24
	popq	%r14
	.cfi_def_cfa_offset 16
	popq	%r15
	.cfi_def_cfa_offset 8
	jmp	memmove@PLT
	.p2align 4,,10
	.p2align 3
.L413:
	.cfi_restore_state
	movq	%r14, %rsi
	movq	%r13, %r8
	jmp	.L386
	.p2align 4,,10
	.p2align 3
.L410:
	addq	$56, %rsp
	.cfi_remember_state
	.cfi_def_cfa_offset 56
	popq	%rbx
	.cfi_def_cfa_offset 48
	popq	%rbp
	.cfi_def_cfa_offset 40
	popq	%r12
	.cfi_def_cfa_offset 32
	popq	%r13
	.cfi_def_cfa_offset 24
	popq	%r14
	.cfi_def_cfa_offset 16
	popq	%r15
	.cfi_def_cfa_offset 8
	ret
	.p2align 4,,10
	.p2align 3
.L374:
	.cfi_restore_state
	movq	32(%rbx), %rdx
	movq	48(%rbx), %rcx
	leaq	0(,%rax,4), %rsi
	movq	(%rdx), %rdx
	movq	(%rcx), %rdi
	movq	40(%rbx), %rcx
	movl	(%rdx,%rax,4), %edx
	addq	%rsi, %rdi
	addq	(%rcx), %rsi
	movq	%rdi, 16(%rsp)
	cmpl	%edx, %r12d
	movl	%edx, %ecx
	movl	%edx, %r11d
	movq	%rsi, %r9
	cmovle	%r12d, %ecx
	xorl	%esi, %esi
	subl	%r12d, %r11d
	cmovs	%esi, %r11d
	movl	%ecx, %edi
	orl	%r11d, %edi
	je	.L415
	subl	%ebp, %edx
	movq	16(%rsp), %rdi
	movl	%ecx, (%r9)
	cmovs	%esi, %edx
	movl	%r11d, (%rdi)
	subl	%edx, %ecx
	leal	1(%rcx), %esi
	js	.L394
	movl	%r12d, 32(%rsp)
	movl	$51, %edi
	movl	$-1, %r10d
	movl	%r15d, 36(%rsp)
	movq	%rbx, 40(%rsp)
	.p2align 4,,10
	.p2align 3
.L392:
	leal	(%r10,%rsi), %ecx
	movl	%ecx, %edx
	shrl	$31, %edx
	addl	%ecx, %edx
	sarl	%edx
	leal	(%rdx,%r11), %ebx
	movl	%edx, %ecx
	cmpl	%ebx, %ebp
	jle	.L390
	movl	(%r9), %r8d
	subl	%edx, %r8d
	testl	%r8d, %r8d
	jle	.L390
	movslq	%ebx, %rbx
	movslq	%r8d, %r8
	leaq	(%rbx,%rbx,2), %rbx
	leaq	(%r8,%r8,2), %r8
	leaq	-24(%r14,%r8,8), %r8
	leaq	0(%r13,%rbx,8), %rbx
	movq	8(%r8), %r12
	movq	8(%rbx), %r15
	movq	(%r8), %r8
	cmpq	%r8, (%rbx)
	ja	.L390
	jne	.L395
	cmpq	%r12, %r15
	ja	.L390
.L395:
	movl	%edx, %r10d
	movl	%esi, %ecx
	.p2align 4,,10
	.p2align 3
.L390:
	subl	$1, %edi
	je	.L416
	movl	%ecx, %edx
	subl	%r10d, %edx
	cmpl	$1, %edx
	jle	.L417
	movl	%ecx, %esi
	jmp	.L392
	.p2align 4,,10
	.p2align 3
.L417:
	movslq	32(%rsp), %r12
	movl	36(%rsp), %r15d
	movq	40(%rsp), %rbx
.L389:
	movq	16(%rsp), %rdi
	subl	%ecx, (%r9)
	addl	%ecx, (%rdi)
	jmp	.L393
	.p2align 4,,10
	.p2align 3
.L415:
	movq	16(%rsp), %rcx
	movl	$0, (%r9)
	movl	$0, (%rcx)
	jmp	.L393
	.p2align 4,,10
	.p2align 3
.L416:
	leaq	.LC3(%rip), %rcx
	movl	$343, %edx
	leaq	.LC4(%rip), %rsi
	leaq	.LC5(%rip), %rdi
	call	__assert_fail@PLT
	.p2align 4,,10
	.p2align 3
.L394:
	movl	%esi, %ecx
	jmp	.L389
	.cfi_endproc
.LFE15845:
	.size	_ZN17ParticleSimulator16MergeSortOmpImplINS_12TreeParticleEZNS_12TreeForForceINS_24SEARCH_MODE_LONG_SCATTERE7Force_t5EPI_tS5_16MyMomentMonopoleS6_13MySPJMonopoleLNS_18CALC_DISTANCE_TYPEE1EE23mortonSortLocalTreeOnlyEbEUlRKS1_SB_E_EEvPT_SE_SE_SE_SE_T0_._omp_fn.0, .-_ZN17ParticleSimulator16MergeSortOmpImplINS_12TreeParticleEZNS_12TreeForForceINS_24SEARCH_MODE_LONG_SCATTERE7Force_t5EPI_tS5_16MyMomentMonopoleS6_13MySPJMonopoleLNS_18CALC_DISTANCE_TYPEE1EE23mortonSortLocalTreeOnlyEbEUlRKS1_SB_E_EEvPT_SE_SE_SE_SE_T0_._omp_fn.0
	.section	.text._ZN17ParticleSimulator12TreeForForceINS_24SEARCH_MODE_LONG_SCATTERE7Force_t5EPI_tS3_16MyMomentMonopoleS4_13MySPJMonopoleLNS_18CALC_DISTANCE_TYPEE1EE30exchangeLocalEssentialTreeLongERKNS_10DomainInfoEb._omp_fn.0,"axG",@progbits,_ZN17ParticleSimulator12TreeForForceINS_24SEARCH_MODE_LONG_SCATTERE7Force_t5EPI_tS3_16MyMomentMonopoleS4_13MySPJMonopoleLNS_18CALC_DISTANCE_TYPEE1EE30exchangeLocalEssentialTreeLongERKNS_10DomainInfoEb,comdat
	.p2align 4
	.type	_ZN17ParticleSimulator12TreeForForceINS_24SEARCH_MODE_LONG_SCATTERE7Force_t5EPI_tS3_16MyMomentMonopoleS4_13MySPJMonopoleLNS_18CALC_DISTANCE_TYPEE1EE30exchangeLocalEssentialTreeLongERKNS_10DomainInfoEb._omp_fn.0, @function
_ZN17ParticleSimulator12TreeForForceINS_24SEARCH_MODE_LONG_SCATTERE7Force_t5EPI_tS3_16MyMomentMonopoleS4_13MySPJMonopoleLNS_18CALC_DISTANCE_TYPEE1EE30exchangeLocalEssentialTreeLongERKNS_10DomainInfoEb._omp_fn.0:
.LFB15847:
	.cfi_startproc
	endbr64
	pushq	%rbp
	.cfi_def_cfa_offset 16
	.cfi_offset 6, -16
	movq	%rsp, %rbp
	.cfi_def_cfa_register 6
	pushq	%r13
	.cfi_offset 13, -24
	movq	%rdi, %r13
	pushq	%r12
	pushq	%rbx
	andq	$-32, %rsp
	.cfi_offset 12, -32
	.cfi_offset 3, -40
	call	omp_get_num_threads@PLT
	movl	%eax, %ebx
	call	omp_get_thread_num@PLT
	movl	%eax, %ecx
	movl	8(%r13), %eax
	cltd
	idivl	%ebx
	cmpl	%edx, %ecx
	jl	.L419
.L425:
	imull	%eax, %ecx
	addl	%ecx, %edx
	leal	(%rax,%rdx), %r10d
	cmpl	%r10d, %edx
	jge	.L426
	movq	0(%r13), %rcx
	movq	1672(%rcx), %r9
	movq	1768(%rcx), %r8
	leal	-1(%rax), %ecx
	cmpl	$6, %ecx
	jbe	.L427
	movslq	%edx, %rsi
	movl	%eax, %r11d
	vpxor	%xmm2, %xmm2, %xmm2
	xorl	%ecx, %ecx
	salq	$2, %rsi
	shrl	$3, %r11d
	vmovdqa	%ymm2, %ymm1
	leaq	(%r9,%rsi), %rdi
	salq	$5, %r11
	addq	%r8, %rsi
	.p2align 4,,10
	.p2align 3
.L422:
	vmovdqu	(%rdi,%rcx), %xmm3
	vinserti128	$0x1, 16(%rdi,%rcx), %ymm3, %ymm0
	vmovdqu	(%rsi,%rcx), %xmm4
	vpaddd	%ymm0, %ymm1, %ymm1
	vinserti128	$0x1, 16(%rsi,%rcx), %ymm4, %ymm0
	addq	$32, %rcx
	vpaddd	%ymm0, %ymm2, %ymm2
	cmpq	%r11, %rcx
	jne	.L422
	vmovdqa	%xmm2, %xmm0
	vextracti128	$0x1, %ymm2, %xmm2
	movl	%eax, %ecx
	vpaddd	%xmm2, %xmm0, %xmm2
	andl	$-8, %ecx
	vpsrldq	$8, %xmm2, %xmm0
	addl	%ecx, %edx
	vpaddd	%xmm0, %xmm2, %xmm2
	vpsrldq	$4, %xmm2, %xmm0
	vpaddd	%xmm0, %xmm2, %xmm2
	vmovdqa	%xmm1, %xmm0
	vextracti128	$0x1, %ymm1, %xmm1
	vpaddd	%xmm1, %xmm0, %xmm1
	vmovd	%xmm2, %ebx
	vpsrldq	$8, %xmm1, %xmm0
	vpaddd	%xmm0, %xmm1, %xmm1
	vpsrldq	$4, %xmm1, %xmm0
	vpaddd	%xmm0, %xmm1, %xmm1
	vmovd	%xmm1, %r12d
	cmpl	%ecx, %eax
	je	.L431
	vzeroupper
.L421:
	movslq	%edx, %rax
	addl	(%r9,%rax,4), %r12d
	addl	(%r8,%rax,4), %ebx
	leal	1(%rdx), %eax
	cmpl	%eax, %r10d
	jle	.L420
	cltq
	addl	(%r9,%rax,4), %r12d
	addl	(%r8,%rax,4), %ebx
	leal	2(%rdx), %eax
	cmpl	%eax, %r10d
	jle	.L420
	cltq
	addl	(%r9,%rax,4), %r12d
	addl	(%r8,%rax,4), %ebx
	leal	3(%rdx), %eax
	cmpl	%eax, %r10d
	jle	.L420
	cltq
	addl	(%r9,%rax,4), %r12d
	addl	(%r8,%rax,4), %ebx
	leal	4(%rdx), %eax
	cmpl	%eax, %r10d
	jle	.L420
	cltq
	addl	(%r9,%rax,4), %r12d
	addl	(%r8,%rax,4), %ebx
	leal	5(%rdx), %eax
	cmpl	%eax, %r10d
	jle	.L420
	cltq
	addl	$6, %edx
	addl	(%r9,%rax,4), %r12d
	addl	(%r8,%rax,4), %ebx
	cmpl	%edx, %r10d
	jle	.L420
	movslq	%edx, %rdx
	addl	(%r9,%rdx,4), %r12d
	addl	(%r8,%rdx,4), %ebx
	jmp	.L420
	.p2align 4,,10
	.p2align 3
.L426:
	xorl	%ebx, %ebx
	xorl	%r12d, %r12d
.L420:
	call	GOMP_atomic_start@PLT
	addl	%r12d, 16(%r13)
	addl	%ebx, 12(%r13)
	leaq	-24(%rbp), %rsp
	popq	%rbx
	popq	%r12
	popq	%r13
	popq	%rbp
	.cfi_remember_state
	.cfi_def_cfa 7, 8
	jmp	GOMP_atomic_end@PLT
	.p2align 4,,10
	.p2align 3
.L419:
	.cfi_restore_state
	addl	$1, %eax
	xorl	%edx, %edx
	jmp	.L425
	.p2align 4,,10
	.p2align 3
.L427:
	xorl	%ebx, %ebx
	xorl	%r12d, %r12d
	jmp	.L421
	.p2align 4,,10
	.p2align 3
.L431:
	vzeroupper
	jmp	.L420
	.cfi_endproc
.LFE15847:
	.size	_ZN17ParticleSimulator12TreeForForceINS_24SEARCH_MODE_LONG_SCATTERE7Force_t5EPI_tS3_16MyMomentMonopoleS4_13MySPJMonopoleLNS_18CALC_DISTANCE_TYPEE1EE30exchangeLocalEssentialTreeLongERKNS_10DomainInfoEb._omp_fn.0, .-_ZN17ParticleSimulator12TreeForForceINS_24SEARCH_MODE_LONG_SCATTERE7Force_t5EPI_tS3_16MyMomentMonopoleS4_13MySPJMonopoleLNS_18CALC_DISTANCE_TYPEE1EE30exchangeLocalEssentialTreeLongERKNS_10DomainInfoEb._omp_fn.0
	.section	.text._ZN17ParticleSimulator19FindScatterParticleINS_24SEARCH_MODE_LONG_SCATTERENS_8TreeCellI16MyMomentMonopoleNS_8GeometryINS_20TagGeometrySizeInOutEEEEENS_12TreeParticleE5EPI_t13MySPJMonopoleNS_11TopGeometryIS7_S1_EELNS_18CALC_DISTANCE_TYPEE1EEEvRKNS_18ReallocatableArrayIT0_EERKNSE_IT1_EERKNSE_IT2_EERNSE_IiEESS_RKNS_10DomainInfoEiSS_SS_RNSE_INS_7Vector3IdEEEESS_SS_SS_RNSE_IT4_EEd._omp_fn.1,"axG",@progbits,_ZN17ParticleSimulator19FindScatterParticleINS_24SEARCH_MODE_LONG_SCATTERENS_8TreeCellI16MyMomentMonopoleNS_8GeometryINS_20TagGeometrySizeInOutEEEEENS_12TreeParticleE5EPI_t13MySPJMonopoleNS_11TopGeometryIS7_S1_EELNS_18CALC_DISTANCE_TYPEE1EEEvRKNS_18ReallocatableArrayIT0_EERKNSE_IT1_EERKNSE_IT2_EERNSE_IiEESS_RKNS_10DomainInfoEiSS_SS_RNSE_INS_7Vector3IdEEEESS_SS_SS_RNSE_IT4_EEd,comdat
	.p2align 4
	.type	_ZN17ParticleSimulator19FindScatterParticleINS_24SEARCH_MODE_LONG_SCATTERENS_8TreeCellI16MyMomentMonopoleNS_8GeometryINS_20TagGeometrySizeInOutEEEEENS_12TreeParticleE5EPI_t13MySPJMonopoleNS_11TopGeometryIS7_S1_EELNS_18CALC_DISTANCE_TYPEE1EEEvRKNS_18ReallocatableArrayIT0_EERKNSE_IT1_EERKNSE_IT2_EERNSE_IiEESS_RKNS_10DomainInfoEiSS_SS_RNSE_INS_7Vector3IdEEEESS_SS_SS_RNSE_IT4_EEd._omp_fn.1, @function
_ZN17ParticleSimulator19FindScatterParticleINS_24SEARCH_MODE_LONG_SCATTERENS_8TreeCellI16MyMomentMonopoleNS_8GeometryINS_20TagGeometrySizeInOutEEEEENS_12TreeParticleE5EPI_t13MySPJMonopoleNS_11TopGeometryIS7_S1_EELNS_18CALC_DISTANCE_TYPEE1EEEvRKNS_18ReallocatableArrayIT0_EERKNSE_IT1_EERKNSE_IT2_EERNSE_IiEESS_RKNS_10DomainInfoEiSS_SS_RNSE_INS_7Vector3IdEEEESS_SS_SS_RNSE_IT4_EEd._omp_fn.1:
.LFB15849:
	.cfi_startproc
	endbr64
	pushq	%r15
	.cfi_def_cfa_offset 16
	.cfi_offset 15, -16
	pushq	%r14
	.cfi_def_cfa_offset 24
	.cfi_offset 14, -24
	pushq	%r13
	.cfi_def_cfa_offset 32
	.cfi_offset 13, -32
	pushq	%r12
	.cfi_def_cfa_offset 40
	.cfi_offset 12, -40
	pushq	%rbp
	.cfi_def_cfa_offset 48
	.cfi_offset 6, -48
	pushq	%rbx
	.cfi_def_cfa_offset 56
	.cfi_offset 3, -56
	movq	%rdi, %rbx
	subq	$104, %rsp
	.cfi_def_cfa_offset 160
	call	omp_get_num_threads@PLT
	movl	%eax, %ebp
	call	omp_get_thread_num@PLT
	movl	%eax, %ecx
	movl	72(%rbx), %eax
	cltd
	idivl	%ebp
	cmpl	%edx, %ecx
	jl	.L433
.L442:
	imull	%eax, %ecx
	addl	%ecx, %edx
	leal	(%rax,%rdx), %ecx
	cmpl	%ecx, %edx
	jge	.L446
	movq	64(%rbx), %rdi
	movq	24(%rbx), %rsi
	movslq	%edx, %rdx
	subl	$1, %eax
	movq	32(%rbx), %rcx
	movq	(%rbx), %r13
	movq	48(%rbx), %r15
	movq	56(%rbx), %r14
	movq	%rdi, 80(%rsp)
	movq	8(%rbx), %rdi
	movq	(%rcx), %rcx
	movq	%rsi, 56(%rsp)
	movq	%rdx, %rsi
	addq	%rax, %rdx
	salq	$5, %rsi
	movq	%rdi, 88(%rsp)
	movq	%rdx, %rax
	movq	40(%rbx), %rdi
	salq	$5, %rax
	leaq	40(%rcx,%rax), %rax
	movq	%rdi, 40(%rsp)
	movq	16(%rbx), %rdi
	movq	%rax, 64(%rsp)
	movq	$-8, %rax
	movq	%rdi, 48(%rsp)
	subq	%rcx, %rax
	leaq	8(%rcx,%rsi), %rdi
	movq	%rdi, 8(%rsp)
	movq	%rax, 72(%rsp)
	.p2align 4,,10
	.p2align 3
.L436:
	movq	8(%rsp), %rax
	movq	72(%rsp), %r12
	addq	%rax, %r12
	movl	(%rax), %eax
	testl	%eax, %eax
	jle	.L439
	movq	8(%rsp), %rbx
	xorl	%ebp, %ebp
	xorl	%r8d, %r8d
	movq	-8(%rbx), %rsi
	movq	80(%rsp), %rbx
	movq	%rsi, 16(%rsp)
	movq	88(%rsp), %rsi
	movq	(%rbx), %rdi
	movq	(%rsi), %rbx
	movq	%rdi, 24(%rsp)
	movq	%rbx, 32(%rsp)
	.p2align 4,,10
	.p2align 3
.L438:
	movq	16(%rsp), %rbx
	movq	32(%rsp), %rdi
	movslq	(%rbx,%rbp,4), %rdx
	movq	24(%rsp), %rbx
	leaq	(%rdi,%rdx,4), %r9
	movslq	(%rbx,%rdx,4), %rsi
	movl	(%r9), %edx
	testl	%edx, %edx
	jle	.L441
	movq	40(%rsp), %rax
	movslq	%r8d, %rdi
	leal	1(%r8), %r10d
	leaq	(%rdi,%rdi,2), %rdx
	salq	$2, %rdi
	movq	(%rax), %rax
	movq	(%rax,%r12), %rax
	leaq	(%rax,%rdx,8), %rcx
	movq	0(%r13), %rax
	leaq	(%rsi,%rsi,2), %rdx
	salq	$2, %rsi
	leaq	(%rax,%rdx,8), %rdx
	movq	(%r15), %rax
	movq	(%rax,%r12), %rbx
	movq	48(%rsp), %rax
	movq	(%rax), %r11
	movq	(%r14), %rax
	addq	%rdi, %rbx
	addq	(%rax,%r12), %rdi
	movq	56(%rsp), %rax
	addq	%rsi, %r11
	addq	(%rax), %rsi
	xorl	%eax, %eax
	.p2align 4,,10
	.p2align 3
.L440:
	vmovupd	(%rcx), %xmm1
	movl	(%rbx,%rax,4), %r8d
	addq	$24, %rcx
	addq	$24, %rdx
	vmovups	%xmm1, -24(%rdx)
	vmovsd	-8(%rcx), %xmm0
	vmovsd	%xmm0, -8(%rdx)
	movl	%r8d, (%r11,%rax,4)
	movl	(%rdi,%rax,4), %r8d
	movl	%r8d, (%rsi,%rax,4)
	leal	(%r10,%rax), %r8d
	addq	$1, %rax
	cmpl	%eax, (%r9)
	jg	.L440
	movq	8(%rsp), %rax
	movl	(%rax), %eax
.L441:
	addq	$1, %rbp
	cmpl	%ebp, %eax
	jg	.L438
.L439:
	addq	$32, 8(%rsp)
	movq	8(%rsp), %rax
	cmpq	%rax, 64(%rsp)
	jne	.L436
.L446:
	addq	$104, %rsp
	.cfi_remember_state
	.cfi_def_cfa_offset 56
	popq	%rbx
	.cfi_def_cfa_offset 48
	popq	%rbp
	.cfi_def_cfa_offset 40
	popq	%r12
	.cfi_def_cfa_offset 32
	popq	%r13
	.cfi_def_cfa_offset 24
	popq	%r14
	.cfi_def_cfa_offset 16
	popq	%r15
	.cfi_def_cfa_offset 8
	ret
.L433:
	.cfi_restore_state
	addl	$1, %eax
	xorl	%edx, %edx
	jmp	.L442
	.cfi_endproc
.LFE15849:
	.size	_ZN17ParticleSimulator19FindScatterParticleINS_24SEARCH_MODE_LONG_SCATTERENS_8TreeCellI16MyMomentMonopoleNS_8GeometryINS_20TagGeometrySizeInOutEEEEENS_12TreeParticleE5EPI_t13MySPJMonopoleNS_11TopGeometryIS7_S1_EELNS_18CALC_DISTANCE_TYPEE1EEEvRKNS_18ReallocatableArrayIT0_EERKNSE_IT1_EERKNSE_IT2_EERNSE_IiEESS_RKNS_10DomainInfoEiSS_SS_RNSE_INS_7Vector3IdEEEESS_SS_SS_RNSE_IT4_EEd._omp_fn.1, .-_ZN17ParticleSimulator19FindScatterParticleINS_24SEARCH_MODE_LONG_SCATTERENS_8TreeCellI16MyMomentMonopoleNS_8GeometryINS_20TagGeometrySizeInOutEEEEENS_12TreeParticleE5EPI_t13MySPJMonopoleNS_11TopGeometryIS7_S1_EELNS_18CALC_DISTANCE_TYPEE1EEEvRKNS_18ReallocatableArrayIT0_EERKNSE_IT1_EERKNSE_IT2_EERNSE_IiEESS_RKNS_10DomainInfoEiSS_SS_RNSE_INS_7Vector3IdEEEESS_SS_SS_RNSE_IT4_EEd._omp_fn.1
	.section	.text._ZN17ParticleSimulator19FindScatterParticleINS_24SEARCH_MODE_LONG_SCATTERENS_8TreeCellI16MyMomentMonopoleNS_8GeometryINS_20TagGeometrySizeInOutEEEEENS_12TreeParticleE5EPI_t13MySPJMonopoleNS_11TopGeometryIS7_S1_EELNS_18CALC_DISTANCE_TYPEE1EEEvRKNS_18ReallocatableArrayIT0_EERKNSE_IT1_EERKNSE_IT2_EERNSE_IiEESS_RKNS_10DomainInfoEiSS_SS_RNSE_INS_7Vector3IdEEEESS_SS_SS_RNSE_IT4_EEd._omp_fn.2,"axG",@progbits,_ZN17ParticleSimulator19FindScatterParticleINS_24SEARCH_MODE_LONG_SCATTERENS_8TreeCellI16MyMomentMonopoleNS_8GeometryINS_20TagGeometrySizeInOutEEEEENS_12TreeParticleE5EPI_t13MySPJMonopoleNS_11TopGeometryIS7_S1_EELNS_18CALC_DISTANCE_TYPEE1EEEvRKNS_18ReallocatableArrayIT0_EERKNSE_IT1_EERKNSE_IT2_EERNSE_IiEESS_RKNS_10DomainInfoEiSS_SS_RNSE_INS_7Vector3IdEEEESS_SS_SS_RNSE_IT4_EEd,comdat
	.p2align 4
	.type	_ZN17ParticleSimulator19FindScatterParticleINS_24SEARCH_MODE_LONG_SCATTERENS_8TreeCellI16MyMomentMonopoleNS_8GeometryINS_20TagGeometrySizeInOutEEEEENS_12TreeParticleE5EPI_t13MySPJMonopoleNS_11TopGeometryIS7_S1_EELNS_18CALC_DISTANCE_TYPEE1EEEvRKNS_18ReallocatableArrayIT0_EERKNSE_IT1_EERKNSE_IT2_EERNSE_IiEESS_RKNS_10DomainInfoEiSS_SS_RNSE_INS_7Vector3IdEEEESS_SS_SS_RNSE_IT4_EEd._omp_fn.2, @function
_ZN17ParticleSimulator19FindScatterParticleINS_24SEARCH_MODE_LONG_SCATTERENS_8TreeCellI16MyMomentMonopoleNS_8GeometryINS_20TagGeometrySizeInOutEEEEENS_12TreeParticleE5EPI_t13MySPJMonopoleNS_11TopGeometryIS7_S1_EELNS_18CALC_DISTANCE_TYPEE1EEEvRKNS_18ReallocatableArrayIT0_EERKNSE_IT1_EERKNSE_IT2_EERNSE_IiEESS_RKNS_10DomainInfoEiSS_SS_RNSE_INS_7Vector3IdEEEESS_SS_SS_RNSE_IT4_EEd._omp_fn.2:
.LFB15850:
	.cfi_startproc
	endbr64
	pushq	%rbp
	.cfi_def_cfa_offset 16
	.cfi_offset 6, -16
	movq	%rsp, %rbp
	.cfi_def_cfa_register 6
	pushq	%r15
	pushq	%r14
	pushq	%r13
	pushq	%r12
	pushq	%rbx
	.cfi_offset 15, -24
	.cfi_offset 14, -32
	.cfi_offset 13, -40
	.cfi_offset 12, -48
	.cfi_offset 3, -56
	movq	%rdi, %rbx
	andq	$-32, %rsp
	addq	$-128, %rsp
	call	omp_get_num_threads@PLT
	movl	%eax, %r12d
	call	omp_get_thread_num@PLT
	movl	%eax, %ecx
	movl	64(%rbx), %eax
	cltd
	idivl	%r12d
	cmpl	%edx, %ecx
	jl	.L449
.L474:
	imull	%eax, %ecx
	addl	%ecx, %edx
	leal	(%rax,%rdx), %ecx
	cmpl	%ecx, %edx
	jge	.L490
	movq	40(%rbx), %rsi
	movq	16(%rbx), %rcx
	movslq	%edx, %rdx
	subl	$1, %eax
	movq	%rsi, 16(%rsp)
	movq	48(%rbx), %rsi
	movq	(%rcx), %rcx
	movq	%rsi, 32(%rsp)
	movq	24(%rbx), %rsi
	movq	%rsi, 96(%rsp)
	movq	(%rbx), %rsi
	movq	%rsi, 88(%rsp)
	movq	56(%rbx), %rsi
	movq	%rsi, 24(%rsp)
	movq	32(%rbx), %rsi
	movq	8(%rbx), %rbx
	movq	%rsi, 80(%rsp)
	movq	%rdx, %rsi
	addq	%rax, %rdx
	movq	%rdx, %rax
	salq	$5, %rsi
	movq	%rbx, 72(%rsp)
	salq	$5, %rax
	leaq	8(%rcx,%rsi), %rbx
	leaq	40(%rcx,%rax), %rax
	movq	%rbx, 56(%rsp)
	movq	%rax, 8(%rsp)
	movq	$-8, %rax
	subq	%rcx, %rax
	movq	%rax, (%rsp)
.L452:
	movq	56(%rsp), %rbx
	movq	(%rsp), %rax
	movl	(%rbx), %ecx
	addq	%rbx, %rax
	movq	%rax, 112(%rsp)
	testl	%ecx, %ecx
	jle	.L455
	movq	-8(%rbx), %rax
	movl	$0, 124(%rsp)
	xorl	%r11d, %r11d
	movq	$0, 64(%rsp)
	movq	%rax, 48(%rsp)
	movq	16(%rsp), %rax
	movq	(%rax), %rax
	movq	%rax, 40(%rsp)
	.p2align 4,,10
	.p2align 3
.L454:
	movq	64(%rsp), %rbx
	movq	48(%rsp), %rax
	movslq	(%rax,%rbx,4), %rax
	movq	40(%rsp), %rbx
	movl	(%rbx,%rax,4), %edx
	movl	4(%rbx,%rax,4), %eax
	cmpl	%eax, %edx
	jge	.L459
	movq	32(%rsp), %rbx
	subl	%edx, %eax
	movslq	%edx, %rsi
	subl	$1, %eax
	leaq	0(,%rsi,4), %r10
	movq	(%rbx), %rcx
	addq	%rsi, %rax
	movq	24(%rsp), %rbx
	leaq	4(%rcx,%rax,4), %rax
	leaq	(%rcx,%r10), %r9
	addq	(%rbx), %r10
	movq	%rax, 104(%rsp)
	.p2align 4,,10
	.p2align 3
.L458:
	movl	(%r9), %esi
	movl	4(%r9), %ebx
	cmpl	%ebx, %esi
	jge	.L470
	movq	96(%rsp), %rax
	movq	112(%rsp), %rdi
	movslq	%r11d, %r13
	movl	%ebx, %r12d
	salq	$2, %r13
	subl	%esi, %r12d
	movq	(%rax), %rax
	movq	(%rax,%rdi), %rdi
	movq	88(%rsp), %rax
	movq	(%rax), %r8
	movslq	%esi, %rax
	leaq	32(%rdi,%r13), %r14
	leaq	(%rdi,%r13), %rcx
	leaq	(%r8,%rax,4), %rdx
	cmpq	%r14, %rdx
	leaq	32(%r8,%rax,4), %r14
	setnb	%r15b
	cmpq	%r14, %rcx
	setnb	%r14b
	orb	%r14b, %r15b
	je	.L467
	leal	-1(%r12), %r14d
	cmpl	$6, %r14d
	jbe	.L467
	movl	%r12d, %r13d
	xorl	%eax, %eax
	shrl	$3, %r13d
	salq	$5, %r13
	.p2align 4,,10
	.p2align 3
.L469:
	vmovdqu	(%rcx,%rax), %xmm2
	vinserti128	$0x1, 16(%rcx,%rax), %ymm2, %ymm0
	vmovups	%xmm0, (%rdx,%rax)
	vextracti128	$0x1, %ymm0, 16(%rdx,%rax)
	addq	$32, %rax
	cmpq	%rax, %r13
	jne	.L469
	movl	%r12d, %edx
	andl	$-8, %edx
	leal	(%r11,%rdx), %eax
	addl	%edx, %esi
	cmpl	%edx, %r12d
	je	.L472
	leal	1(%rax), %edx
	cltq
	movl	(%rdi,%rax,4), %ecx
	movslq	%esi, %rax
	movl	%ecx, (%r8,%rax,4)
	leal	1(%rsi), %eax
	cmpl	%eax, %ebx
	jle	.L472
	movslq	%edx, %rdx
	cltq
	leaq	0(,%rdx,4), %r13
	movl	(%rdi,%rdx,4), %edx
	leaq	0(,%rax,4), %rcx
	movl	%edx, (%r8,%rax,4)
	leal	2(%rsi), %eax
	cmpl	%eax, %ebx
	jle	.L472
	movl	4(%rdi,%r13), %eax
	movl	%eax, 4(%r8,%rcx)
	leal	3(%rsi), %eax
	cmpl	%eax, %ebx
	jle	.L472
	movl	8(%rdi,%r13), %eax
	movl	%eax, 8(%r8,%rcx)
	leal	4(%rsi), %eax
	cmpl	%eax, %ebx
	jle	.L472
	movl	12(%rdi,%r13), %eax
	movl	%eax, 12(%r8,%rcx)
	leal	5(%rsi), %eax
	cmpl	%eax, %ebx
	jle	.L472
	movl	16(%rdi,%r13), %eax
	addl	$6, %esi
	movl	%eax, 16(%r8,%rcx)
	cmpl	%esi, %ebx
	jle	.L472
	movl	20(%rdi,%r13), %eax
	movl	%eax, 20(%r8,%rcx)
.L472:
	addl	%r12d, %r11d
.L470:
	movl	(%r10), %esi
	movl	4(%r10), %ebx
	cmpl	%ebx, %esi
	jge	.L463
	movq	80(%rsp), %rax
	movq	112(%rsp), %rdi
	movl	%ebx, %r12d
	movslq	124(%rsp), %r13
	subl	%esi, %r12d
	movq	(%rax), %rax
	salq	$2, %r13
	movq	(%rax,%rdi), %rdi
	movq	72(%rsp), %rax
	movq	(%rax), %r8
	movslq	%esi, %rax
	leaq	32(%rdi,%r13), %r14
	leaq	(%rdi,%r13), %rcx
	leaq	(%r8,%rax,4), %rdx
	cmpq	%r14, %rdx
	leaq	32(%r8,%rax,4), %r14
	setnb	%r15b
	cmpq	%r14, %rcx
	setnb	%r14b
	orb	%r14b, %r15b
	je	.L460
	leal	-1(%r12), %r14d
	cmpl	$6, %r14d
	jbe	.L460
	movl	%r12d, %r13d
	xorl	%eax, %eax
	shrl	$3, %r13d
	salq	$5, %r13
	.p2align 4,,10
	.p2align 3
.L462:
	vmovdqu	(%rcx,%rax), %xmm1
	vinserti128	$0x1, 16(%rcx,%rax), %ymm1, %ymm0
	vmovups	%xmm0, (%rdx,%rax)
	vextracti128	$0x1, %ymm0, 16(%rdx,%rax)
	addq	$32, %rax
	cmpq	%r13, %rax
	jne	.L462
	movl	124(%rsp), %eax
	movl	%r12d, %edx
	andl	$-8, %edx
	addl	%edx, %eax
	addl	%edx, %esi
	cmpl	%r12d, %edx
	je	.L465
	leal	1(%rax), %edx
	cltq
	movl	(%rdi,%rax,4), %ecx
	movslq	%esi, %rax
	movl	%ecx, (%r8,%rax,4)
	leal	1(%rsi), %eax
	cmpl	%eax, %ebx
	jle	.L465
	movslq	%edx, %rdx
	cltq
	leaq	0(,%rdx,4), %r13
	movl	(%rdi,%rdx,4), %edx
	leaq	0(,%rax,4), %rcx
	movl	%edx, (%r8,%rax,4)
	leal	2(%rsi), %eax
	cmpl	%eax, %ebx
	jle	.L465
	movl	4(%rdi,%r13), %eax
	movl	%eax, 4(%r8,%rcx)
	leal	3(%rsi), %eax
	cmpl	%eax, %ebx
	jle	.L465
	movl	8(%rdi,%r13), %eax
	movl	%eax, 8(%r8,%rcx)
	leal	4(%rsi), %eax
	cmpl	%eax, %ebx
	jle	.L465
	movl	12(%rdi,%r13), %eax
	movl	%eax, 12(%r8,%rcx)
	leal	5(%rsi), %eax
	cmpl	%eax, %ebx
	jle	.L465
	movl	16(%rdi,%r13), %eax
	addl	$6, %esi
	movl	%eax, 16(%r8,%rcx)
	cmpl	%esi, %ebx
	jle	.L465
	movl	20(%rdi,%r13), %eax
	movl	%eax, 20(%r8,%rcx)
.L465:
	addl	%r12d, 124(%rsp)
.L463:
	addq	$4, %r9
	addq	$4, %r10
	cmpq	104(%rsp), %r9
	jne	.L458
	movq	56(%rsp), %rax
	movl	(%rax), %ecx
.L459:
	addq	$1, 64(%rsp)
	movq	64(%rsp), %rax
	cmpl	%eax, %ecx
	jg	.L454
.L455:
	addq	$32, 56(%rsp)
	movq	56(%rsp), %rax
	cmpq	8(%rsp), %rax
	jne	.L452
	vzeroupper
.L490:
	leaq	-40(%rbp), %rsp
	popq	%rbx
	popq	%r12
	popq	%r13
	popq	%r14
	popq	%r15
	popq	%rbp
	.cfi_remember_state
	.cfi_def_cfa 7, 8
	ret
	.p2align 4,,10
	.p2align 3
.L460:
	.cfi_restore_state
	movq	%rax, %rdx
	negq	%rdx
	leaq	0(%r13,%rdx,4), %rdx
	addq	%rdx, %rdi
	.p2align 4,,10
	.p2align 3
.L466:
	movl	(%rdi,%rax,4), %edx
	movl	%edx, (%r8,%rax,4)
	addq	$1, %rax
	cmpl	%eax, %ebx
	jg	.L466
	jmp	.L465
	.p2align 4,,10
	.p2align 3
.L467:
	movq	%rax, %rdx
	negq	%rdx
	leaq	0(%r13,%rdx,4), %rdx
	addq	%rdx, %rdi
	.p2align 4,,10
	.p2align 3
.L473:
	movl	(%rdi,%rax,4), %edx
	movl	%edx, (%r8,%rax,4)
	addq	$1, %rax
	cmpl	%eax, %ebx
	jg	.L473
	jmp	.L472
.L449:
	addl	$1, %eax
	xorl	%edx, %edx
	jmp	.L474
	.cfi_endproc
.LFE15850:
	.size	_ZN17ParticleSimulator19FindScatterParticleINS_24SEARCH_MODE_LONG_SCATTERENS_8TreeCellI16MyMomentMonopoleNS_8GeometryINS_20TagGeometrySizeInOutEEEEENS_12TreeParticleE5EPI_t13MySPJMonopoleNS_11TopGeometryIS7_S1_EELNS_18CALC_DISTANCE_TYPEE1EEEvRKNS_18ReallocatableArrayIT0_EERKNSE_IT1_EERKNSE_IT2_EERNSE_IiEESS_RKNS_10DomainInfoEiSS_SS_RNSE_INS_7Vector3IdEEEESS_SS_SS_RNSE_IT4_EEd._omp_fn.2, .-_ZN17ParticleSimulator19FindScatterParticleINS_24SEARCH_MODE_LONG_SCATTERENS_8TreeCellI16MyMomentMonopoleNS_8GeometryINS_20TagGeometrySizeInOutEEEEENS_12TreeParticleE5EPI_t13MySPJMonopoleNS_11TopGeometryIS7_S1_EELNS_18CALC_DISTANCE_TYPEE1EEEvRKNS_18ReallocatableArrayIT0_EERKNSE_IT1_EERKNSE_IT2_EERNSE_IiEESS_RKNS_10DomainInfoEiSS_SS_RNSE_INS_7Vector3IdEEEESS_SS_SS_RNSE_IT4_EEd._omp_fn.2
	.section	.text._ZN17ParticleSimulator18ExchangeNumberLongERKNS_18ReallocatableArrayIiEERS1_S3_S4_RKNS_8CommInfoE._omp_fn.0,"axG",@progbits,_ZN17ParticleSimulator18ExchangeNumberLongERKNS_18ReallocatableArrayIiEERS1_S3_S4_RKNS_8CommInfoE,comdat
	.p2align 4
	.type	_ZN17ParticleSimulator18ExchangeNumberLongERKNS_18ReallocatableArrayIiEERS1_S3_S4_RKNS_8CommInfoE._omp_fn.0, @function
_ZN17ParticleSimulator18ExchangeNumberLongERKNS_18ReallocatableArrayIiEERS1_S3_S4_RKNS_8CommInfoE._omp_fn.0:
.LFB15851:
	.cfi_startproc
	endbr64
	pushq	%rbp
	.cfi_def_cfa_offset 16
	.cfi_offset 6, -16
	movq	%rsp, %rbp
	.cfi_def_cfa_register 6
	pushq	%r15
	pushq	%r14
	pushq	%r13
	pushq	%r12
	pushq	%rbx
	.cfi_offset 15, -24
	.cfi_offset 14, -32
	.cfi_offset 13, -40
	.cfi_offset 12, -48
	.cfi_offset 3, -56
	movq	%rdi, %rbx
	andq	$-32, %rsp
	subq	$64, %rsp
	call	omp_get_num_threads@PLT
	movl	%eax, %r12d
	call	omp_get_thread_num@PLT
	movl	%eax, %ecx
	movl	24(%rbx), %eax
	cltd
	idivl	%r12d
	cmpl	%edx, %ecx
	jl	.L493
.L499:
	imull	%eax, %ecx
	addl	%ecx, %edx
	leal	(%rax,%rdx), %r9d
	cmpl	%r9d, %edx
	jge	.L516
	movq	(%rbx), %rcx
	movl	%eax, %r12d
	leaq	-2(%r12,%r12), %r15
	movq	(%rcx), %r11
	movq	16(%rbx), %rcx
	movq	(%rcx), %rsi
	movq	8(%rbx), %rcx
	leal	(%rdx,%rdx), %ebx
	movslq	%ebx, %rbx
	movq	(%rcx), %r10
	leaq	64(,%rbx,4), %rdi
	leaq	2(%rbx,%r15), %rcx
	leaq	1(%rbx), %r13
	movq	%rdi, 32(%rsp)
	leaq	(%rsi,%rcx,4), %rdi
	movslq	%edx, %rcx
	leaq	0(,%r13,4), %r14
	addq	%rcx, %r12
	addq	%r15, %r13
	movq	%rdi, 56(%rsp)
	salq	$2, %r12
	leaq	(%rsi,%r13,4), %r15
	movq	%rcx, 16(%rsp)
	leaq	0(,%rbx,4), %r13
	leaq	0(,%rcx,4), %rdi
	leaq	(%r11,%r12), %rcx
	addq	%r10, %r12
	movq	%r15, 40(%rsp)
	leaq	60(,%rbx,4), %rbx
	leaq	(%r11,%rdi), %r8
	addq	%r10, %rdi
	movq	%rcx, 48(%rsp)
	cmpq	%rbx, %r14
	leaq	(%rsi,%r14), %rcx
	leal	-1(%rax), %ebx
	movq	%r12, 24(%rsp)
	setge	%r14b
	cmpq	32(%rsp), %r13
	leaq	(%rsi,%r13), %r12
	setge	%r15b
	orl	%r15d, %r14d
	cmpl	$8, %ebx
	seta	%r15b
	andl	%r14d, %r15d
	cmpq	%r8, 56(%rsp)
	setbe	%r13b
	cmpq	%rcx, 48(%rsp)
	setbe	%bl
	orl	%r13d, %ebx
	andl	%ebx, %r15d
	cmpq	%rdi, 56(%rsp)
	movl	%r15d, %r14d
	movq	%rcx, %r15
	movq	24(%rsp), %rcx
	setbe	%r13b
	cmpq	%rcx, %r15
	setnb	%bl
	orl	%r13d, %ebx
	andl	%r14d, %ebx
	cmpq	40(%rsp), %r8
	setnb	%r13b
	cmpq	%r12, 48(%rsp)
	setbe	%r14b
	orl	%r14d, %r13d
	testb	%r13b, %bl
	je	.L508
	cmpq	40(%rsp), %rdi
	setnb	%r13b
	cmpq	%r12, %rcx
	setbe	%bl
	orb	%bl, %r13b
	je	.L508
	movl	%eax, %r13d
	movq	%r15, %rcx
	xorl	%ebx, %ebx
	shrl	$3, %r13d
	salq	$5, %r13
	.p2align 4,,10
	.p2align 3
.L496:
	vmovdqu	(%r8,%rbx), %xmm2
	addq	$64, %r12
	addq	$64, %rcx
	vinserti128	$0x1, 16(%r8,%rbx), %ymm2, %ymm0
	vmovd	%xmm0, -64(%r12)
	vpextrd	$1, %xmm0, -56(%r12)
	vpextrd	$2, %xmm0, -48(%r12)
	vpextrd	$3, %xmm0, -40(%r12)
	vextracti128	$0x1, %ymm0, %xmm0
	vmovd	%xmm0, -32(%r12)
	vpextrd	$1, %xmm0, -24(%r12)
	vpextrd	$2, %xmm0, -16(%r12)
	vpextrd	$3, %xmm0, -8(%r12)
	vmovdqu	(%rdi,%rbx), %xmm3
	vinserti128	$0x1, 16(%rdi,%rbx), %ymm3, %ymm0
	addq	$32, %rbx
	vmovd	%xmm0, -64(%rcx)
	vpextrd	$1, %xmm0, -56(%rcx)
	vpextrd	$2, %xmm0, -48(%rcx)
	vpextrd	$3, %xmm0, -40(%rcx)
	vextracti128	$0x1, %ymm0, %xmm0
	vmovd	%xmm0, -32(%rcx)
	vpextrd	$1, %xmm0, -24(%rcx)
	vpextrd	$2, %xmm0, -16(%rcx)
	vpextrd	$3, %xmm0, -8(%rcx)
	cmpq	%rbx, %r13
	jne	.L496
	movl	%eax, %ecx
	andl	$-8, %ecx
	addl	%ecx, %edx
	cmpl	%ecx, %eax
	je	.L515
	movslq	%edx, %rcx
	leal	(%rdx,%rdx), %eax
	movl	(%r11,%rcx,4), %r8d
	movslq	%eax, %rdi
	addl	$1, %eax
	cltq
	movl	%r8d, (%rsi,%rdi,4)
	movl	(%r10,%rcx,4), %ecx
	movl	%ecx, (%rsi,%rax,4)
	leal	1(%rdx), %eax
	cmpl	%eax, %r9d
	jle	.L515
	movslq	%eax, %rcx
	addl	%eax, %eax
	movl	(%r11,%rcx,4), %r8d
	movslq	%eax, %rdi
	addl	$1, %eax
	cltq
	movl	%r8d, (%rsi,%rdi,4)
	movl	(%r10,%rcx,4), %ecx
	movl	%ecx, (%rsi,%rax,4)
	leal	2(%rdx), %eax
	cmpl	%eax, %r9d
	jle	.L515
	movslq	%eax, %rcx
	addl	%eax, %eax
	movl	(%r11,%rcx,4), %r8d
	movslq	%eax, %rdi
	addl	$1, %eax
	cltq
	movl	%r8d, (%rsi,%rdi,4)
	movl	(%r10,%rcx,4), %ecx
	movl	%ecx, (%rsi,%rax,4)
	leal	3(%rdx), %eax
	cmpl	%eax, %r9d
	jle	.L515
	movslq	%eax, %rcx
	addl	%eax, %eax
	movl	(%r11,%rcx,4), %r8d
	movslq	%eax, %rdi
	addl	$1, %eax
	cltq
	movl	%r8d, (%rsi,%rdi,4)
	movl	(%r10,%rcx,4), %ecx
	movl	%ecx, (%rsi,%rax,4)
	leal	4(%rdx), %eax
	cmpl	%eax, %r9d
	jle	.L515
	movslq	%eax, %rcx
	addl	%eax, %eax
	movl	(%r11,%rcx,4), %r8d
	movslq	%eax, %rdi
	addl	$1, %eax
	cltq
	movl	%r8d, (%rsi,%rdi,4)
	movl	(%r10,%rcx,4), %ecx
	movl	%ecx, (%rsi,%rax,4)
	leal	5(%rdx), %eax
	cmpl	%eax, %r9d
	jle	.L515
	movslq	%eax, %rcx
	addl	%eax, %eax
	addl	$6, %edx
	movl	(%r11,%rcx,4), %r8d
	movslq	%eax, %rdi
	addl	$1, %eax
	cltq
	movl	%r8d, (%rsi,%rdi,4)
	movl	(%r10,%rcx,4), %ecx
	movl	%ecx, (%rsi,%rax,4)
	cmpl	%edx, %r9d
	jle	.L515
	movslq	%edx, %rax
	addl	%edx, %edx
	movl	(%r11,%rax,4), %edi
	movslq	%edx, %rcx
	addl	$1, %edx
	movslq	%edx, %rdx
	movl	%edi, (%rsi,%rcx,4)
	movl	(%r10,%rax,4), %eax
	movl	%eax, (%rsi,%rdx,4)
	vzeroupper
.L516:
	leaq	-40(%rbp), %rsp
	popq	%rbx
	popq	%r12
	popq	%r13
	popq	%r14
	popq	%r15
	popq	%rbp
	.cfi_remember_state
	.cfi_def_cfa 7, 8
	ret
	.p2align 4,,10
	.p2align 3
.L515:
	.cfi_restore_state
	vzeroupper
	leaq	-40(%rbp), %rsp
	popq	%rbx
	popq	%r12
	popq	%r13
	popq	%r14
	popq	%r15
	popq	%rbp
	.cfi_remember_state
	.cfi_def_cfa 7, 8
	ret
	.p2align 4,,10
	.p2align 3
.L493:
	.cfi_restore_state
	addl	$1, %eax
	xorl	%edx, %edx
	jmp	.L499
	.p2align 4,,10
	.p2align 3
.L508:
	movq	16(%rsp), %rcx
	.p2align 4,,10
	.p2align 3
.L502:
	movl	(%r11,%rcx,4), %eax
	movl	%eax, (%rsi,%rcx,8)
	movl	(%r10,%rcx,4), %eax
	movl	%eax, 4(%rsi,%rcx,8)
	addq	$1, %rcx
	cmpl	%ecx, %r9d
	jg	.L502
	jmp	.L516
	.cfi_endproc
.LFE15851:
	.size	_ZN17ParticleSimulator18ExchangeNumberLongERKNS_18ReallocatableArrayIiEERS1_S3_S4_RKNS_8CommInfoE._omp_fn.0, .-_ZN17ParticleSimulator18ExchangeNumberLongERKNS_18ReallocatableArrayIiEERS1_S3_S4_RKNS_8CommInfoE._omp_fn.0
	.section	.text._ZN17ParticleSimulator18ExchangeNumberLongERKNS_18ReallocatableArrayIiEERS1_S3_S4_RKNS_8CommInfoE._omp_fn.1,"axG",@progbits,_ZN17ParticleSimulator18ExchangeNumberLongERKNS_18ReallocatableArrayIiEERS1_S3_S4_RKNS_8CommInfoE,comdat
	.p2align 4
	.type	_ZN17ParticleSimulator18ExchangeNumberLongERKNS_18ReallocatableArrayIiEERS1_S3_S4_RKNS_8CommInfoE._omp_fn.1, @function
_ZN17ParticleSimulator18ExchangeNumberLongERKNS_18ReallocatableArrayIiEERS1_S3_S4_RKNS_8CommInfoE._omp_fn.1:
.LFB15852:
	.cfi_startproc
	endbr64
	pushq	%rbp
	.cfi_def_cfa_offset 16
	.cfi_offset 6, -16
	movq	%rsp, %rbp
	.cfi_def_cfa_register 6
	pushq	%r15
	pushq	%r14
	pushq	%r13
	.cfi_offset 15, -24
	.cfi_offset 14, -32
	.cfi_offset 13, -40
	movq	%rdi, %r13
	pushq	%r12
	pushq	%rbx
	andq	$-32, %rsp
	subq	$32, %rsp
	.cfi_offset 12, -48
	.cfi_offset 3, -56
	call	omp_get_num_threads@PLT
	movl	%eax, %ebx
	call	omp_get_thread_num@PLT
	movl	%eax, %ecx
	movl	24(%r13), %eax
	cltd
	idivl	%ebx
	cmpl	%edx, %ecx
	jl	.L519
.L524:
	imull	%eax, %ecx
	addl	%ecx, %edx
	leal	(%rax,%rdx), %r12d
	cmpl	%r12d, %edx
	jge	.L541
	movq	16(%r13), %rcx
	leal	-1(%rax), %edi
	leal	(%rdx,%rdx), %esi
	movl	%eax, %eax
	movl	%edi, 28(%rsp)
	movslq	%edx, %rdi
	leaq	-2(%rax,%rax), %r15
	movslq	%esi, %rsi
	movq	(%rcx), %r8
	movq	0(%r13), %rcx
	addq	%rdi, %rax
	leaq	0(,%rdi,4), %r9
	salq	$2, %rax
	movq	(%rcx), %rbx
	movq	8(%r13), %rcx
	leaq	1(%rsi), %r13
	movq	(%rcx), %r11
	leaq	2(%rsi,%r15), %rcx
	leaq	(%rbx,%r9), %r10
	leaq	(%r8,%rcx,4), %r14
	leaq	(%rbx,%rax), %rcx
	movq	%rcx, 16(%rsp)
	addq	%r11, %rax
	leaq	(%r8,%r13,4), %rcx
	addq	%r15, %r13
	movq	%rax, 8(%rsp)
	addq	%r11, %r9
	leaq	(%r8,%r13,4), %r13
	leaq	(%r8,%rsi,4), %rsi
	leaq	32(,%rdi,4), %r15
	movq	%r13, (%rsp)
	leaq	(%rbx,%r15), %rax
	cmpq	%rax, %r9
	setnb	%r13b
	addq	%r11, %r15
	cmpq	%r15, %r10
	setnb	%al
	orl	%eax, %r13d
	cmpl	$7, 28(%rsp)
	seta	%al
	andl	%eax, %r13d
	cmpq	%r14, %r10
	setnb	%al
	cmpq	%rcx, 16(%rsp)
	setbe	%r15b
	orl	%r15d, %eax
	andl	%eax, %r13d
	cmpq	%r9, %r14
	setbe	%r14b
	cmpq	8(%rsp), %rcx
	setnb	%r15b
	orl	%r15d, %r14d
	movq	(%rsp), %r15
	andl	%r14d, %r13d
	cmpq	%r15, %r10
	setnb	%al
	cmpq	%rsi, 16(%rsp)
	setbe	%r14b
	orl	%r14d, %eax
	testb	%al, %r13b
	je	.L527
	cmpq	%r15, %r9
	setnb	%r13b
	cmpq	%rsi, 8(%rsp)
	setbe	%al
	orb	%al, %r13b
	je	.L527
	movl	28(%rsp), %edi
	xorl	%eax, %eax
	shrl	$3, %edi
	salq	$5, %rdi
	.p2align 4,,10
	.p2align 3
.L522:
	vmovdqu	(%rsi,%rax,2), %xmm3
	vmovdqu	32(%rsi,%rax,2), %xmm4
	vinserti128	$0x1, 16(%rsi,%rax,2), %ymm3, %ymm0
	vinserti128	$0x1, 48(%rsi,%rax,2), %ymm4, %ymm2
	vperm2i128	$32, %ymm2, %ymm0, %ymm1
	vperm2i128	$49, %ymm2, %ymm0, %ymm0
	vpshufd	$216, %ymm1, %ymm1
	vpshufd	$216, %ymm0, %ymm0
	vpunpcklqdq	%ymm0, %ymm1, %ymm0
	vmovups	%xmm0, (%r10,%rax)
	vextracti128	$0x1, %ymm0, 16(%r10,%rax)
	vmovdqu	(%rcx,%rax,2), %xmm5
	vmovdqu	32(%rcx,%rax,2), %xmm6
	vinserti128	$0x1, 16(%rcx,%rax,2), %ymm5, %ymm0
	vinserti128	$0x1, 48(%rcx,%rax,2), %ymm6, %ymm2
	vperm2i128	$32, %ymm2, %ymm0, %ymm1
	vperm2i128	$49, %ymm2, %ymm0, %ymm0
	vpshufd	$216, %ymm1, %ymm1
	vpshufd	$216, %ymm0, %ymm0
	vpunpcklqdq	%ymm0, %ymm1, %ymm0
	vmovups	%xmm0, (%r9,%rax)
	vextracti128	$0x1, %ymm0, 16(%r9,%rax)
	addq	$32, %rax
	cmpq	%rdi, %rax
	jne	.L522
	movl	28(%rsp), %eax
	andl	$-8, %eax
	addl	%eax, %edx
	leal	(%rdx,%rdx), %eax
	movslq	%edx, %rcx
	movslq	%eax, %rsi
	addl	$1, %eax
	movl	(%r8,%rsi,4), %esi
	cltq
	movl	%esi, (%rbx,%rcx,4)
	movl	(%r8,%rax,4), %eax
	movl	%eax, (%r11,%rcx,4)
	leal	1(%rdx), %eax
	cmpl	%eax, %r12d
	jle	.L540
	leal	(%rax,%rax), %ecx
	cltq
	movslq	%ecx, %rsi
	addl	$1, %ecx
	movl	(%r8,%rsi,4), %esi
	movslq	%ecx, %rcx
	movl	%esi, (%rbx,%rax,4)
	movl	(%r8,%rcx,4), %ecx
	movl	%ecx, (%r11,%rax,4)
	leal	2(%rdx), %eax
	cmpl	%eax, %r12d
	jle	.L540
	leal	(%rax,%rax), %ecx
	cltq
	movslq	%ecx, %rsi
	addl	$1, %ecx
	movl	(%r8,%rsi,4), %esi
	movslq	%ecx, %rcx
	movl	%esi, (%rbx,%rax,4)
	movl	(%r8,%rcx,4), %ecx
	movl	%ecx, (%r11,%rax,4)
	leal	3(%rdx), %eax
	cmpl	%eax, %r12d
	jle	.L540
	leal	(%rax,%rax), %ecx
	cltq
	movslq	%ecx, %rsi
	addl	$1, %ecx
	movl	(%r8,%rsi,4), %esi
	movslq	%ecx, %rcx
	movl	%esi, (%rbx,%rax,4)
	movl	(%r8,%rcx,4), %ecx
	movl	%ecx, (%r11,%rax,4)
	leal	4(%rdx), %eax
	cmpl	%eax, %r12d
	jle	.L540
	leal	(%rax,%rax), %ecx
	cltq
	movslq	%ecx, %rsi
	addl	$1, %ecx
	movl	(%r8,%rsi,4), %esi
	movslq	%ecx, %rcx
	movl	%esi, (%rbx,%rax,4)
	movl	(%r8,%rcx,4), %ecx
	movl	%ecx, (%r11,%rax,4)
	leal	5(%rdx), %eax
	cmpl	%eax, %r12d
	jle	.L540
	leal	(%rax,%rax), %ecx
	cltq
	movslq	%ecx, %rsi
	addl	$1, %ecx
	movl	(%r8,%rsi,4), %esi
	movslq	%ecx, %rcx
	movl	%esi, (%rbx,%rax,4)
	movl	(%r8,%rcx,4), %ecx
	movl	%ecx, (%r11,%rax,4)
	leal	6(%rdx), %eax
	cmpl	%eax, %r12d
	jle	.L540
	leal	(%rax,%rax), %ecx
	cltq
	addl	$7, %edx
	movslq	%ecx, %rsi
	addl	$1, %ecx
	movl	(%r8,%rsi,4), %esi
	movslq	%ecx, %rcx
	movl	%esi, (%rbx,%rax,4)
	movl	(%r8,%rcx,4), %ecx
	movl	%ecx, (%r11,%rax,4)
	cmpl	%edx, %r12d
	jle	.L540
	leal	(%rdx,%rdx), %eax
	movslq	%edx, %rdx
	movslq	%eax, %rcx
	addl	$1, %eax
	movl	(%r8,%rcx,4), %ecx
	cltq
	movl	%ecx, (%rbx,%rdx,4)
	movl	(%r8,%rax,4), %eax
	movl	%eax, (%r11,%rdx,4)
	vzeroupper
.L541:
	leaq	-40(%rbp), %rsp
	popq	%rbx
	popq	%r12
	popq	%r13
	popq	%r14
	popq	%r15
	popq	%rbp
	.cfi_remember_state
	.cfi_def_cfa 7, 8
	ret
	.p2align 4,,10
	.p2align 3
.L527:
	.cfi_restore_state
	movl	(%r8,%rdi,8), %eax
	movl	%eax, (%rbx,%rdi,4)
	movl	4(%r8,%rdi,8), %eax
	movl	%eax, (%r11,%rdi,4)
	addq	$1, %rdi
	cmpl	%edi, %r12d
	jg	.L527
	jmp	.L541
	.p2align 4,,10
	.p2align 3
.L540:
	vzeroupper
	leaq	-40(%rbp), %rsp
	popq	%rbx
	popq	%r12
	popq	%r13
	popq	%r14
	popq	%r15
	popq	%rbp
	.cfi_remember_state
	.cfi_def_cfa 7, 8
	ret
	.p2align 4,,10
	.p2align 3
.L519:
	.cfi_restore_state
	addl	$1, %eax
	xorl	%edx, %edx
	jmp	.L524
	.cfi_endproc
.LFE15852:
	.size	_ZN17ParticleSimulator18ExchangeNumberLongERKNS_18ReallocatableArrayIiEERS1_S3_S4_RKNS_8CommInfoE._omp_fn.1, .-_ZN17ParticleSimulator18ExchangeNumberLongERKNS_18ReallocatableArrayIiEERS1_S3_S4_RKNS_8CommInfoE._omp_fn.1
	.section	.text._ZNK3MPI4Comm8AlltoallEPKviRKNS_8DatatypeEPviS5_,"axG",@progbits,_ZNK3MPI4Comm8AlltoallEPKviRKNS_8DatatypeEPviS5_,comdat
	.align 2
	.p2align 4
	.weak	_ZNK3MPI4Comm8AlltoallEPKviRKNS_8DatatypeEPviS5_
	.type	_ZNK3MPI4Comm8AlltoallEPKviRKNS_8DatatypeEPviS5_, @function
_ZNK3MPI4Comm8AlltoallEPKviRKNS_8DatatypeEPviS5_:
.LFB4938:
	.cfi_startproc
	endbr64
	movq	%rdi, %r10
	movq	8(%rsp), %rax
	movq	%rcx, %r11
	movq	%r8, %rcx
	movl	%r9d, %r8d
	movq	8(%r10), %r9
	movq	%rsi, %rdi
	movl	%edx, %esi
	movq	8(%r11), %rdx
	movq	%r9, 8(%rsp)
	movq	8(%rax), %r9
	jmp	MPI_Alltoall@PLT
	.cfi_endproc
.LFE4938:
	.size	_ZNK3MPI4Comm8AlltoallEPKviRKNS_8DatatypeEPviS5_, .-_ZNK3MPI4Comm8AlltoallEPKviRKNS_8DatatypeEPviS5_
	.section	.text._ZNK3MPI4Comm9AlltoallvEPKvPKiS4_RKNS_8DatatypeEPvS4_S4_S7_,"axG",@progbits,_ZNK3MPI4Comm9AlltoallvEPKvPKiS4_RKNS_8DatatypeEPvS4_S4_S7_,comdat
	.align 2
	.p2align 4
	.weak	_ZNK3MPI4Comm9AlltoallvEPKvPKiS4_RKNS_8DatatypeEPvS4_S4_S7_
	.type	_ZNK3MPI4Comm9AlltoallvEPKvPKiS4_RKNS_8DatatypeEPvS4_S4_S7_, @function
_ZNK3MPI4Comm9AlltoallvEPKvPKiS4_RKNS_8DatatypeEPvS4_S4_S7_:
.LFB4939:
	.cfi_startproc
	endbr64
	pushq	%rbp
	.cfi_def_cfa_offset 16
	.cfi_offset 6, -16
	movq	%rdi, %rbp
	movq	32(%rsp), %r11
	movq	%rsi, %rdi
	movq	%rdx, %rsi
	movq	%rcx, %rdx
	movq	8(%r8), %rcx
	movq	8(%rbp), %r8
	movq	24(%rsp), %r10
	movq	%r9, %rax
	movq	16(%rsp), %r9
	movq	%r8, 32(%rsp)
	movq	8(%r11), %r8
	movq	%r10, 16(%rsp)
	movq	%r8, 24(%rsp)
	movq	%rax, %r8
	popq	%rbp
	.cfi_def_cfa_offset 8
	jmp	MPI_Alltoallv@PLT
	.cfi_endproc
.LFE4939:
	.size	_ZNK3MPI4Comm9AlltoallvEPKvPKiS4_RKNS_8DatatypeEPvS4_S4_S7_, .-_ZNK3MPI4Comm9AlltoallvEPKvPKiS4_RKNS_8DatatypeEPvS4_S4_S7_
	.section	.text._ZN17ParticleSimulator12TreeForForceINS_24SEARCH_MODE_LONG_SCATTERE7Force_t5EPI_tS3_16MyMomentMonopoleS4_13MySPJMonopoleLNS_18CALC_DISTANCE_TYPEE1EE33exchangeLocalEssentialTreeLongP2PERKNS_10DomainInfoEb._omp_fn.0,"axG",@progbits,_ZN17ParticleSimulator12TreeForForceINS_24SEARCH_MODE_LONG_SCATTERE7Force_t5EPI_tS3_16MyMomentMonopoleS4_13MySPJMonopoleLNS_18CALC_DISTANCE_TYPEE1EE33exchangeLocalEssentialTreeLongP2PERKNS_10DomainInfoEb,comdat
	.p2align 4
	.type	_ZN17ParticleSimulator12TreeForForceINS_24SEARCH_MODE_LONG_SCATTERE7Force_t5EPI_tS3_16MyMomentMonopoleS4_13MySPJMonopoleLNS_18CALC_DISTANCE_TYPEE1EE33exchangeLocalEssentialTreeLongP2PERKNS_10DomainInfoEb._omp_fn.0, @function
_ZN17ParticleSimulator12TreeForForceINS_24SEARCH_MODE_LONG_SCATTERE7Force_t5EPI_tS3_16MyMomentMonopoleS4_13MySPJMonopoleLNS_18CALC_DISTANCE_TYPEE1EE33exchangeLocalEssentialTreeLongP2PERKNS_10DomainInfoEb._omp_fn.0:
.LFB15854:
	.cfi_startproc
	endbr64
	pushq	%r12
	.cfi_def_cfa_offset 16
	.cfi_offset 12, -16
	movq	%rdi, %r12
	pushq	%rbp
	.cfi_def_cfa_offset 24
	.cfi_offset 6, -24
	pushq	%rbx
	.cfi_def_cfa_offset 32
	.cfi_offset 3, -32
	movq	(%rdi), %rbp
	call	omp_get_num_threads@PLT
	movl	%eax, %ebx
	call	omp_get_thread_num@PLT
	movl	%eax, %ecx
	movl	2000(%rbp), %eax
	cltd
	idivl	%ebx
	cmpl	%edx, %ecx
	jl	.L547
.L550:
	imull	%eax, %ecx
	addl	%ecx, %edx
	leal	(%rax,%rdx), %ecx
	cmpl	%ecx, %edx
	jge	.L551
	movq	1992(%rbp), %r8
	movslq	%edx, %rdx
	subl	$1, %eax
	xorl	%ebx, %ebx
	movq	1672(%rbp), %rdi
	movq	1768(%rbp), %rsi
	xorl	%ebp, %ebp
	leaq	(%r8,%rdx,4), %rcx
	addq	%rax, %rdx
	leaq	4(%r8,%rdx,4), %rdx
	.p2align 4,,10
	.p2align 3
.L549:
	movslq	(%rcx), %rax
	addq	$4, %rcx
	addl	(%rdi,%rax,4), %ebp
	addl	(%rsi,%rax,4), %ebx
	cmpq	%rcx, %rdx
	jne	.L549
.L548:
	call	GOMP_atomic_start@PLT
	addl	%ebp, 12(%r12)
	addl	%ebx, 8(%r12)
	popq	%rbx
	.cfi_remember_state
	.cfi_def_cfa_offset 24
	popq	%rbp
	.cfi_def_cfa_offset 16
	popq	%r12
	.cfi_def_cfa_offset 8
	jmp	GOMP_atomic_end@PLT
	.p2align 4,,10
	.p2align 3
.L551:
	.cfi_restore_state
	xorl	%ebx, %ebx
	xorl	%ebp, %ebp
	jmp	.L548
	.p2align 4,,10
	.p2align 3
.L547:
	addl	$1, %eax
	xorl	%edx, %edx
	jmp	.L550
	.cfi_endproc
.LFE15854:
	.size	_ZN17ParticleSimulator12TreeForForceINS_24SEARCH_MODE_LONG_SCATTERE7Force_t5EPI_tS3_16MyMomentMonopoleS4_13MySPJMonopoleLNS_18CALC_DISTANCE_TYPEE1EE33exchangeLocalEssentialTreeLongP2PERKNS_10DomainInfoEb._omp_fn.0, .-_ZN17ParticleSimulator12TreeForForceINS_24SEARCH_MODE_LONG_SCATTERE7Force_t5EPI_tS3_16MyMomentMonopoleS4_13MySPJMonopoleLNS_18CALC_DISTANCE_TYPEE1EE33exchangeLocalEssentialTreeLongP2PERKNS_10DomainInfoEb._omp_fn.0
	.section	.text._ZN17ParticleSimulator18ReallocatableArrayINS_9TopMomentI13MySPJMonopoleNS_8TreeCellI16MyMomentMonopoleNS_8GeometryINS_20TagGeometrySizeInOutEEEEENS_24SEARCH_MODE_LONG_SCATTEREEEE12ReallocInnerEi._omp_fn.1,"axG",@progbits,_ZN17ParticleSimulator12TreeForForceINS_24SEARCH_MODE_LONG_SCATTERE7Force_t5EPI_tS3_16MyMomentMonopoleS4_13MySPJMonopoleLNS_18CALC_DISTANCE_TYPEE1EE33exchangeLocalEssentialTreeLongP2PERKNS_10DomainInfoEb,comdat
	.p2align 4
	.type	_ZN17ParticleSimulator18ReallocatableArrayINS_9TopMomentI13MySPJMonopoleNS_8TreeCellI16MyMomentMonopoleNS_8GeometryINS_20TagGeometrySizeInOutEEEEENS_24SEARCH_MODE_LONG_SCATTEREEEE12ReallocInnerEi._omp_fn.1, @function
_ZN17ParticleSimulator18ReallocatableArrayINS_9TopMomentI13MySPJMonopoleNS_8TreeCellI16MyMomentMonopoleNS_8GeometryINS_20TagGeometrySizeInOutEEEEENS_24SEARCH_MODE_LONG_SCATTEREEEE12ReallocInnerEi._omp_fn.1:
.LFB15857:
	.cfi_startproc
	endbr64
	pushq	%r12
	.cfi_def_cfa_offset 16
	.cfi_offset 12, -16
	pushq	%rbp
	.cfi_def_cfa_offset 24
	.cfi_offset 6, -24
	pushq	%rbx
	.cfi_def_cfa_offset 32
	.cfi_offset 3, -32
	movq	(%rdi), %rbp
	movq	8(%rdi), %r12
	call	omp_get_thread_num@PLT
	movl	%eax, %ebx
	call	omp_get_num_threads@PLT
	movl	%eax, %r8d
	movl	12(%rbp), %eax
	cltd
	idivl	%r8d
	movl	%ebx, %r8d
	movl	%eax, %ecx
	imull	%ebx, %ecx
	cmpl	%ebx, %edx
	cmovle	%edx, %r8d
	addl	$1, %ebx
	addl	%ecx, %r8d
	movslq	%r8d, %rsi
	leaq	(%rsi,%rsi,4), %rsi
	leaq	(%rsi,%rsi,4), %rsi
	salq	$3, %rsi
	cmpl	%edx, %ebx
	cmovg	%edx, %ebx
	addl	%ecx, %eax
	leaq	(%r12,%rsi), %rdi
	addq	0(%rbp), %rsi
	addl	%eax, %ebx
	subl	%r8d, %ebx
	movslq	%ebx, %rbx
	leaq	(%rbx,%rbx,4), %rax
	popq	%rbx
	.cfi_def_cfa_offset 24
	popq	%rbp
	.cfi_def_cfa_offset 16
	leaq	(%rax,%rax,4), %rdx
	popq	%r12
	.cfi_def_cfa_offset 8
	salq	$3, %rdx
	jmp	memcpy@PLT
	.cfi_endproc
.LFE15857:
	.size	_ZN17ParticleSimulator18ReallocatableArrayINS_9TopMomentI13MySPJMonopoleNS_8TreeCellI16MyMomentMonopoleNS_8GeometryINS_20TagGeometrySizeInOutEEEEENS_24SEARCH_MODE_LONG_SCATTEREEEE12ReallocInnerEi._omp_fn.1, .-_ZN17ParticleSimulator18ReallocatableArrayINS_9TopMomentI13MySPJMonopoleNS_8TreeCellI16MyMomentMonopoleNS_8GeometryINS_20TagGeometrySizeInOutEEEEENS_24SEARCH_MODE_LONG_SCATTEREEEE12ReallocInnerEi._omp_fn.1
	.section	.text._ZN17ParticleSimulator18ReallocatableArrayINS_9TopMomentI13MySPJMonopoleNS_8TreeCellI16MyMomentMonopoleNS_8GeometryINS_20TagGeometrySizeInOutEEEEENS_24SEARCH_MODE_LONG_SCATTEREEEE12ReallocInnerEi._omp_fn.2,"axG",@progbits,_ZN17ParticleSimulator12TreeForForceINS_24SEARCH_MODE_LONG_SCATTERE7Force_t5EPI_tS3_16MyMomentMonopoleS4_13MySPJMonopoleLNS_18CALC_DISTANCE_TYPEE1EE33exchangeLocalEssentialTreeLongP2PERKNS_10DomainInfoEb,comdat
	.p2align 4
	.type	_ZN17ParticleSimulator18ReallocatableArrayINS_9TopMomentI13MySPJMonopoleNS_8TreeCellI16MyMomentMonopoleNS_8GeometryINS_20TagGeometrySizeInOutEEEEENS_24SEARCH_MODE_LONG_SCATTEREEEE12ReallocInnerEi._omp_fn.2, @function
_ZN17ParticleSimulator18ReallocatableArrayINS_9TopMomentI13MySPJMonopoleNS_8TreeCellI16MyMomentMonopoleNS_8GeometryINS_20TagGeometrySizeInOutEEEEENS_24SEARCH_MODE_LONG_SCATTEREEEE12ReallocInnerEi._omp_fn.2:
.LFB15858:
	.cfi_startproc
	endbr64
	pushq	%r12
	.cfi_def_cfa_offset 16
	.cfi_offset 12, -16
	pushq	%rbp
	.cfi_def_cfa_offset 24
	.cfi_offset 6, -24
	pushq	%rbx
	.cfi_def_cfa_offset 32
	.cfi_offset 3, -32
	movq	8(%rdi), %rbp
	movq	(%rdi), %r12
	call	omp_get_thread_num@PLT
	movl	%eax, %ebx
	call	omp_get_num_threads@PLT
	movq	(%r12), %rdi
	movl	%eax, %r8d
	movl	8(%r12), %eax
	cltd
	idivl	%r8d
	movl	%ebx, %r8d
	movl	%eax, %ecx
	imull	%ebx, %ecx
	cmpl	%ebx, %edx
	cmovle	%edx, %r8d
	addl	$1, %ebx
	addl	%ecx, %r8d
	movslq	%r8d, %rsi
	leaq	(%rsi,%rsi,4), %rsi
	leaq	(%rsi,%rsi,4), %rsi
	salq	$3, %rsi
	addq	%rsi, %rdi
	cmpl	%edx, %ebx
	cmovg	%edx, %ebx
	addl	%ecx, %eax
	addq	%rbp, %rsi
	addl	%eax, %ebx
	subl	%r8d, %ebx
	movslq	%ebx, %rbx
	leaq	(%rbx,%rbx,4), %rax
	popq	%rbx
	.cfi_def_cfa_offset 24
	popq	%rbp
	.cfi_def_cfa_offset 16
	leaq	(%rax,%rax,4), %rdx
	popq	%r12
	.cfi_def_cfa_offset 8
	salq	$3, %rdx
	jmp	memcpy@PLT
	.cfi_endproc
.LFE15858:
	.size	_ZN17ParticleSimulator18ReallocatableArrayINS_9TopMomentI13MySPJMonopoleNS_8TreeCellI16MyMomentMonopoleNS_8GeometryINS_20TagGeometrySizeInOutEEEEENS_24SEARCH_MODE_LONG_SCATTEREEEE12ReallocInnerEi._omp_fn.2, .-_ZN17ParticleSimulator18ReallocatableArrayINS_9TopMomentI13MySPJMonopoleNS_8TreeCellI16MyMomentMonopoleNS_8GeometryINS_20TagGeometrySizeInOutEEEEENS_24SEARCH_MODE_LONG_SCATTEREEEE12ReallocInnerEi._omp_fn.2
	.section	.text._ZN17ParticleSimulator22FindScatterParticleP2PINS_24SEARCH_MODE_LONG_SCATTERENS_8TreeCellI16MyMomentMonopoleNS_8GeometryINS_20TagGeometrySizeInOutEEEEENS_12TreeParticleE5EPI_t13MySPJMonopoleNS_9TopMomentISA_S7_S1_EELNS_18CALC_DISTANCE_TYPEE1EEEvRKNS_18ReallocatableArrayIT0_EERKNSE_IT1_EERKNSE_IT2_EERNSE_IiEESS_RKNS_10DomainInfoEiSS_SS_RNSE_INS_7Vector3IdEEEESS_SS_SS_SS_SS_RNSE_IT4_EERKNS_10Orthotope3IdEEdSS_RKNS_9MortonKeyENS_17EXCHANGE_LET_MODEE._omp_fn.0,"axG",@progbits,_ZN17ParticleSimulator22FindScatterParticleP2PINS_24SEARCH_MODE_LONG_SCATTERENS_8TreeCellI16MyMomentMonopoleNS_8GeometryINS_20TagGeometrySizeInOutEEEEENS_12TreeParticleE5EPI_t13MySPJMonopoleNS_9TopMomentISA_S7_S1_EELNS_18CALC_DISTANCE_TYPEE1EEEvRKNS_18ReallocatableArrayIT0_EERKNSE_IT1_EERKNSE_IT2_EERNSE_IiEESS_RKNS_10DomainInfoEiSS_SS_RNSE_INS_7Vector3IdEEEESS_SS_SS_SS_SS_RNSE_IT4_EERKNS_10Orthotope3IdEEdSS_RKNS_9MortonKeyENS_17EXCHANGE_LET_MODEE,comdat
	.p2align 4
	.type	_ZN17ParticleSimulator22FindScatterParticleP2PINS_24SEARCH_MODE_LONG_SCATTERENS_8TreeCellI16MyMomentMonopoleNS_8GeometryINS_20TagGeometrySizeInOutEEEEENS_12TreeParticleE5EPI_t13MySPJMonopoleNS_9TopMomentISA_S7_S1_EELNS_18CALC_DISTANCE_TYPEE1EEEvRKNS_18ReallocatableArrayIT0_EERKNSE_IT1_EERKNSE_IT2_EERNSE_IiEESS_RKNS_10DomainInfoEiSS_SS_RNSE_INS_7Vector3IdEEEESS_SS_SS_SS_SS_RNSE_IT4_EERKNS_10Orthotope3IdEEdSS_RKNS_9MortonKeyENS_17EXCHANGE_LET_MODEE._omp_fn.0, @function
_ZN17ParticleSimulator22FindScatterParticleP2PINS_24SEARCH_MODE_LONG_SCATTERENS_8TreeCellI16MyMomentMonopoleNS_8GeometryINS_20TagGeometrySizeInOutEEEEENS_12TreeParticleE5EPI_t13MySPJMonopoleNS_9TopMomentISA_S7_S1_EELNS_18CALC_DISTANCE_TYPEE1EEEvRKNS_18ReallocatableArrayIT0_EERKNSE_IT1_EERKNSE_IT2_EERNSE_IiEESS_RKNS_10DomainInfoEiSS_SS_RNSE_INS_7Vector3IdEEEESS_SS_SS_SS_SS_RNSE_IT4_EERKNS_10Orthotope3IdEEdSS_RKNS_9MortonKeyENS_17EXCHANGE_LET_MODEE._omp_fn.0:
.LFB15859:
	.cfi_startproc
	endbr64
	pushq	%r15
	.cfi_def_cfa_offset 16
	.cfi_offset 15, -16
	pushq	%r14
	.cfi_def_cfa_offset 24
	.cfi_offset 14, -24
	pushq	%r13
	.cfi_def_cfa_offset 32
	.cfi_offset 13, -32
	pushq	%r12
	.cfi_def_cfa_offset 40
	.cfi_offset 12, -40
	pushq	%rbp
	.cfi_def_cfa_offset 48
	.cfi_offset 6, -48
	pushq	%rbx
	.cfi_def_cfa_offset 56
	.cfi_offset 3, -56
	movq	%rdi, %rbx
	subq	$8, %rsp
	.cfi_def_cfa_offset 64
	call	omp_get_num_threads@PLT
	movl	%eax, %ebp
	call	omp_get_thread_num@PLT
	movl	%eax, %ecx
	movl	24(%rbx), %eax
	cltd
	idivl	%ebp
	cmpl	%edx, %ecx
	jl	.L559
.L562:
	imull	%eax, %ecx
	addl	%ecx, %edx
	leal	(%rax,%rdx), %esi
	cmpl	%esi, %edx
	jge	.L569
	movq	16(%rbx), %rcx
	movslq	%edx, %rdx
	leaq	0(,%rdx,4), %rbp
	movq	(%rcx), %r8
	movq	8(%rbx), %rcx
	movq	(%rcx), %r9
	movq	(%rbx), %rcx
	leal	-1(%rax), %ebx
	leaq	(%r8,%rbp), %r11
	movq	(%rcx), %r10
	leaq	1(%rdx), %rcx
	leaq	(%r9,%rbp), %r12
	leaq	(%rcx,%rbx), %rax
	salq	$2, %rax
	addq	%r10, %rbp
	leaq	(%r8,%rax), %rdi
	leaq	(%r9,%rax), %r13
	addq	%r10, %rax
	cmpq	%rdi, %r12
	setnb	%r15b
	cmpq	%r11, %r13
	setbe	%r14b
	orl	%r15d, %r14d
	cmpq	%rbp, %rdi
	setbe	%dil
	cmpq	%rax, %r11
	setnb	%r15b
	orl	%r15d, %edi
	testb	%dil, %r14b
	je	.L566
	cmpq	%rbp, %r13
	setbe	%dil
	cmpq	%rax, %r12
	setnb	%al
	orb	%al, %dil
	je	.L566
	leaq	4(,%rbx,4), %r13
	movq	%r11, %rdi
	xorl	%esi, %esi
	movq	%r13, %rdx
	call	memset@PLT
	movq	%r13, %rdx
	movq	%rbp, %rdi
	xorl	%esi, %esi
	call	memset@PLT
	addq	$8, %rsp
	.cfi_remember_state
	.cfi_def_cfa_offset 56
	movq	%r13, %rdx
	movq	%r12, %rdi
	popq	%rbx
	.cfi_def_cfa_offset 48
	xorl	%esi, %esi
	popq	%rbp
	.cfi_def_cfa_offset 40
	popq	%r12
	.cfi_def_cfa_offset 32
	popq	%r13
	.cfi_def_cfa_offset 24
	popq	%r14
	.cfi_def_cfa_offset 16
	popq	%r15
	.cfi_def_cfa_offset 8
	jmp	memset@PLT
	.p2align 4,,10
	.p2align 3
.L571:
	.cfi_restore_state
	addq	$1, %rcx
.L566:
	movl	$0, (%r8,%rdx,4)
	movl	$0, (%r9,%rdx,4)
	movl	$0, (%r10,%rdx,4)
	movq	%rcx, %rdx
	cmpl	%ecx, %esi
	jg	.L571
.L569:
	addq	$8, %rsp
	.cfi_remember_state
	.cfi_def_cfa_offset 56
	popq	%rbx
	.cfi_def_cfa_offset 48
	popq	%rbp
	.cfi_def_cfa_offset 40
	popq	%r12
	.cfi_def_cfa_offset 32
	popq	%r13
	.cfi_def_cfa_offset 24
	popq	%r14
	.cfi_def_cfa_offset 16
	popq	%r15
	.cfi_def_cfa_offset 8
	ret
	.p2align 4,,10
	.p2align 3
.L559:
	.cfi_restore_state
	addl	$1, %eax
	xorl	%edx, %edx
	jmp	.L562
	.cfi_endproc
.LFE15859:
	.size	_ZN17ParticleSimulator22FindScatterParticleP2PINS_24SEARCH_MODE_LONG_SCATTERENS_8TreeCellI16MyMomentMonopoleNS_8GeometryINS_20TagGeometrySizeInOutEEEEENS_12TreeParticleE5EPI_t13MySPJMonopoleNS_9TopMomentISA_S7_S1_EELNS_18CALC_DISTANCE_TYPEE1EEEvRKNS_18ReallocatableArrayIT0_EERKNSE_IT1_EERKNSE_IT2_EERNSE_IiEESS_RKNS_10DomainInfoEiSS_SS_RNSE_INS_7Vector3IdEEEESS_SS_SS_SS_SS_RNSE_IT4_EERKNS_10Orthotope3IdEEdSS_RKNS_9MortonKeyENS_17EXCHANGE_LET_MODEE._omp_fn.0, .-_ZN17ParticleSimulator22FindScatterParticleP2PINS_24SEARCH_MODE_LONG_SCATTERENS_8TreeCellI16MyMomentMonopoleNS_8GeometryINS_20TagGeometrySizeInOutEEEEENS_12TreeParticleE5EPI_t13MySPJMonopoleNS_9TopMomentISA_S7_S1_EELNS_18CALC_DISTANCE_TYPEE1EEEvRKNS_18ReallocatableArrayIT0_EERKNSE_IT1_EERKNSE_IT2_EERNSE_IiEESS_RKNS_10DomainInfoEiSS_SS_RNSE_INS_7Vector3IdEEEESS_SS_SS_SS_SS_RNSE_IT4_EERKNS_10Orthotope3IdEEdSS_RKNS_9MortonKeyENS_17EXCHANGE_LET_MODEE._omp_fn.0
	.section	.text._ZN17ParticleSimulator22FindScatterParticleP2PINS_24SEARCH_MODE_LONG_SCATTERENS_8TreeCellI16MyMomentMonopoleNS_8GeometryINS_20TagGeometrySizeInOutEEEEENS_12TreeParticleE5EPI_t13MySPJMonopoleNS_9TopMomentISA_S7_S1_EELNS_18CALC_DISTANCE_TYPEE1EEEvRKNS_18ReallocatableArrayIT0_EERKNSE_IT1_EERKNSE_IT2_EERNSE_IiEESS_RKNS_10DomainInfoEiSS_SS_RNSE_INS_7Vector3IdEEEESS_SS_SS_SS_SS_RNSE_IT4_EERKNS_10Orthotope3IdEEdSS_RKNS_9MortonKeyENS_17EXCHANGE_LET_MODEE._omp_fn.3,"axG",@progbits,_ZN17ParticleSimulator22FindScatterParticleP2PINS_24SEARCH_MODE_LONG_SCATTERENS_8TreeCellI16MyMomentMonopoleNS_8GeometryINS_20TagGeometrySizeInOutEEEEENS_12TreeParticleE5EPI_t13MySPJMonopoleNS_9TopMomentISA_S7_S1_EELNS_18CALC_DISTANCE_TYPEE1EEEvRKNS_18ReallocatableArrayIT0_EERKNSE_IT1_EERKNSE_IT2_EERNSE_IiEESS_RKNS_10DomainInfoEiSS_SS_RNSE_INS_7Vector3IdEEEESS_SS_SS_SS_SS_RNSE_IT4_EERKNS_10Orthotope3IdEEdSS_RKNS_9MortonKeyENS_17EXCHANGE_LET_MODEE,comdat
	.p2align 4
	.type	_ZN17ParticleSimulator22FindScatterParticleP2PINS_24SEARCH_MODE_LONG_SCATTERENS_8TreeCellI16MyMomentMonopoleNS_8GeometryINS_20TagGeometrySizeInOutEEEEENS_12TreeParticleE5EPI_t13MySPJMonopoleNS_9TopMomentISA_S7_S1_EELNS_18CALC_DISTANCE_TYPEE1EEEvRKNS_18ReallocatableArrayIT0_EERKNSE_IT1_EERKNSE_IT2_EERNSE_IiEESS_RKNS_10DomainInfoEiSS_SS_RNSE_INS_7Vector3IdEEEESS_SS_SS_SS_SS_RNSE_IT4_EERKNS_10Orthotope3IdEEdSS_RKNS_9MortonKeyENS_17EXCHANGE_LET_MODEE._omp_fn.3, @function
_ZN17ParticleSimulator22FindScatterParticleP2PINS_24SEARCH_MODE_LONG_SCATTERENS_8TreeCellI16MyMomentMonopoleNS_8GeometryINS_20TagGeometrySizeInOutEEEEENS_12TreeParticleE5EPI_t13MySPJMonopoleNS_9TopMomentISA_S7_S1_EELNS_18CALC_DISTANCE_TYPEE1EEEvRKNS_18ReallocatableArrayIT0_EERKNSE_IT1_EERKNSE_IT2_EERNSE_IiEESS_RKNS_10DomainInfoEiSS_SS_RNSE_INS_7Vector3IdEEEESS_SS_SS_SS_SS_RNSE_IT4_EERKNS_10Orthotope3IdEEdSS_RKNS_9MortonKeyENS_17EXCHANGE_LET_MODEE._omp_fn.3:
.LFB15862:
	.cfi_startproc
	endbr64
	pushq	%rbp
	.cfi_def_cfa_offset 16
	.cfi_offset 6, -16
	movq	%rdi, %rbp
	pushq	%rbx
	.cfi_def_cfa_offset 24
	.cfi_offset 3, -24
	subq	$8, %rsp
	.cfi_def_cfa_offset 32
	call	omp_get_num_threads@PLT
	movl	%eax, %ebx
	call	omp_get_thread_num@PLT
	movl	%eax, %ecx
	movl	8(%rbp), %eax
	cltd
	idivl	%ebx
	cmpl	%edx, %ecx
	jl	.L573
.L575:
	imull	%eax, %ecx
	addl	%ecx, %edx
	leal	(%rax,%rdx), %ecx
	cmpl	%ecx, %edx
	jge	.L576
	subl	$1, %eax
	movslq	%edx, %rdx
	xorl	%esi, %esi
	leaq	4(,%rax,4), %r8
	movq	0(%rbp), %rax
	movq	(%rax), %rax
	addq	$8, %rsp
	.cfi_remember_state
	.cfi_def_cfa_offset 24
	popq	%rbx
	.cfi_def_cfa_offset 16
	popq	%rbp
	.cfi_def_cfa_offset 8
	leaq	(%rax,%rdx,4), %rdi
	movq	%r8, %rdx
	jmp	memset@PLT
	.p2align 4,,10
	.p2align 3
.L576:
	.cfi_restore_state
	addq	$8, %rsp
	.cfi_remember_state
	.cfi_def_cfa_offset 24
	popq	%rbx
	.cfi_def_cfa_offset 16
	popq	%rbp
	.cfi_def_cfa_offset 8
	ret
	.p2align 4,,10
	.p2align 3
.L573:
	.cfi_restore_state
	addl	$1, %eax
	xorl	%edx, %edx
	jmp	.L575
	.cfi_endproc
.LFE15862:
	.size	_ZN17ParticleSimulator22FindScatterParticleP2PINS_24SEARCH_MODE_LONG_SCATTERENS_8TreeCellI16MyMomentMonopoleNS_8GeometryINS_20TagGeometrySizeInOutEEEEENS_12TreeParticleE5EPI_t13MySPJMonopoleNS_9TopMomentISA_S7_S1_EELNS_18CALC_DISTANCE_TYPEE1EEEvRKNS_18ReallocatableArrayIT0_EERKNSE_IT1_EERKNSE_IT2_EERNSE_IiEESS_RKNS_10DomainInfoEiSS_SS_RNSE_INS_7Vector3IdEEEESS_SS_SS_SS_SS_RNSE_IT4_EERKNS_10Orthotope3IdEEdSS_RKNS_9MortonKeyENS_17EXCHANGE_LET_MODEE._omp_fn.3, .-_ZN17ParticleSimulator22FindScatterParticleP2PINS_24SEARCH_MODE_LONG_SCATTERENS_8TreeCellI16MyMomentMonopoleNS_8GeometryINS_20TagGeometrySizeInOutEEEEENS_12TreeParticleE5EPI_t13MySPJMonopoleNS_9TopMomentISA_S7_S1_EELNS_18CALC_DISTANCE_TYPEE1EEEvRKNS_18ReallocatableArrayIT0_EERKNSE_IT1_EERKNSE_IT2_EERNSE_IiEESS_RKNS_10DomainInfoEiSS_SS_RNSE_INS_7Vector3IdEEEESS_SS_SS_SS_SS_RNSE_IT4_EERKNS_10Orthotope3IdEEdSS_RKNS_9MortonKeyENS_17EXCHANGE_LET_MODEE._omp_fn.3
	.section	.text._ZN17ParticleSimulator22FindScatterParticleP2PINS_24SEARCH_MODE_LONG_SCATTERENS_8TreeCellI16MyMomentMonopoleNS_8GeometryINS_20TagGeometrySizeInOutEEEEENS_12TreeParticleE5EPI_t13MySPJMonopoleNS_9TopMomentISA_S7_S1_EELNS_18CALC_DISTANCE_TYPEE1EEEvRKNS_18ReallocatableArrayIT0_EERKNSE_IT1_EERKNSE_IT2_EERNSE_IiEESS_RKNS_10DomainInfoEiSS_SS_RNSE_INS_7Vector3IdEEEESS_SS_SS_SS_SS_RNSE_IT4_EERKNS_10Orthotope3IdEEdSS_RKNS_9MortonKeyENS_17EXCHANGE_LET_MODEE._omp_fn.5,"axG",@progbits,_ZN17ParticleSimulator22FindScatterParticleP2PINS_24SEARCH_MODE_LONG_SCATTERENS_8TreeCellI16MyMomentMonopoleNS_8GeometryINS_20TagGeometrySizeInOutEEEEENS_12TreeParticleE5EPI_t13MySPJMonopoleNS_9TopMomentISA_S7_S1_EELNS_18CALC_DISTANCE_TYPEE1EEEvRKNS_18ReallocatableArrayIT0_EERKNSE_IT1_EERKNSE_IT2_EERNSE_IiEESS_RKNS_10DomainInfoEiSS_SS_RNSE_INS_7Vector3IdEEEESS_SS_SS_SS_SS_RNSE_IT4_EERKNS_10Orthotope3IdEEdSS_RKNS_9MortonKeyENS_17EXCHANGE_LET_MODEE,comdat
	.p2align 4
	.type	_ZN17ParticleSimulator22FindScatterParticleP2PINS_24SEARCH_MODE_LONG_SCATTERENS_8TreeCellI16MyMomentMonopoleNS_8GeometryINS_20TagGeometrySizeInOutEEEEENS_12TreeParticleE5EPI_t13MySPJMonopoleNS_9TopMomentISA_S7_S1_EELNS_18CALC_DISTANCE_TYPEE1EEEvRKNS_18ReallocatableArrayIT0_EERKNSE_IT1_EERKNSE_IT2_EERNSE_IiEESS_RKNS_10DomainInfoEiSS_SS_RNSE_INS_7Vector3IdEEEESS_SS_SS_SS_SS_RNSE_IT4_EERKNS_10Orthotope3IdEEdSS_RKNS_9MortonKeyENS_17EXCHANGE_LET_MODEE._omp_fn.5, @function
_ZN17ParticleSimulator22FindScatterParticleP2PINS_24SEARCH_MODE_LONG_SCATTERENS_8TreeCellI16MyMomentMonopoleNS_8GeometryINS_20TagGeometrySizeInOutEEEEENS_12TreeParticleE5EPI_t13MySPJMonopoleNS_9TopMomentISA_S7_S1_EELNS_18CALC_DISTANCE_TYPEE1EEEvRKNS_18ReallocatableArrayIT0_EERKNSE_IT1_EERKNSE_IT2_EERNSE_IiEESS_RKNS_10DomainInfoEiSS_SS_RNSE_INS_7Vector3IdEEEESS_SS_SS_SS_SS_RNSE_IT4_EERKNS_10Orthotope3IdEEdSS_RKNS_9MortonKeyENS_17EXCHANGE_LET_MODEE._omp_fn.5:
.LFB15864:
	.cfi_startproc
	endbr64
	pushq	%r15
	.cfi_def_cfa_offset 16
	.cfi_offset 15, -16
	pushq	%r14
	.cfi_def_cfa_offset 24
	.cfi_offset 14, -24
	pushq	%r13
	.cfi_def_cfa_offset 32
	.cfi_offset 13, -32
	pushq	%r12
	.cfi_def_cfa_offset 40
	.cfi_offset 12, -40
	pushq	%rbp
	.cfi_def_cfa_offset 48
	.cfi_offset 6, -48
	pushq	%rbx
	.cfi_def_cfa_offset 56
	.cfi_offset 3, -56
	movq	%rdi, %rbx
	subq	$104, %rsp
	.cfi_def_cfa_offset 160
	call	omp_get_num_threads@PLT
	movl	%eax, %ebp
	call	omp_get_thread_num@PLT
	movl	%eax, %ecx
	movl	72(%rbx), %eax
	cltd
	idivl	%ebp
	cmpl	%edx, %ecx
	jl	.L579
.L588:
	imull	%eax, %ecx
	addl	%ecx, %edx
	leal	(%rax,%rdx), %ecx
	cmpl	%ecx, %edx
	jge	.L592
	movq	64(%rbx), %rdi
	movq	24(%rbx), %rsi
	movslq	%edx, %rdx
	subl	$1, %eax
	movq	32(%rbx), %rcx
	movq	(%rbx), %r13
	movq	48(%rbx), %r15
	movq	56(%rbx), %r14
	movq	%rdi, 80(%rsp)
	movq	8(%rbx), %rdi
	movq	(%rcx), %rcx
	movq	%rsi, 56(%rsp)
	movq	%rdx, %rsi
	addq	%rax, %rdx
	salq	$5, %rsi
	movq	%rdi, 88(%rsp)
	movq	%rdx, %rax
	movq	40(%rbx), %rdi
	salq	$5, %rax
	leaq	40(%rcx,%rax), %rax
	movq	%rdi, 40(%rsp)
	movq	16(%rbx), %rdi
	movq	%rax, 64(%rsp)
	movq	$-8, %rax
	movq	%rdi, 48(%rsp)
	subq	%rcx, %rax
	leaq	8(%rcx,%rsi), %rdi
	movq	%rdi, 8(%rsp)
	movq	%rax, 72(%rsp)
	.p2align 4,,10
	.p2align 3
.L582:
	movq	8(%rsp), %rax
	movq	72(%rsp), %r12
	addq	%rax, %r12
	movl	(%rax), %eax
	testl	%eax, %eax
	jle	.L585
	movq	8(%rsp), %rbx
	xorl	%ebp, %ebp
	xorl	%r8d, %r8d
	movq	-8(%rbx), %rsi
	movq	80(%rsp), %rbx
	movq	%rsi, 16(%rsp)
	movq	88(%rsp), %rsi
	movq	(%rbx), %rdi
	movq	(%rsi), %rbx
	movq	%rdi, 24(%rsp)
	movq	%rbx, 32(%rsp)
	.p2align 4,,10
	.p2align 3
.L584:
	movq	16(%rsp), %rbx
	movq	32(%rsp), %rdi
	movslq	(%rbx,%rbp,4), %rdx
	movq	24(%rsp), %rbx
	leaq	(%rdi,%rdx,4), %r9
	movslq	(%rbx,%rdx,4), %rsi
	movl	(%r9), %edx
	testl	%edx, %edx
	jle	.L587
	movq	40(%rsp), %rax
	movslq	%r8d, %rdi
	leal	1(%r8), %r10d
	leaq	(%rdi,%rdi,2), %rdx
	salq	$2, %rdi
	movq	(%rax), %rax
	movq	(%rax,%r12), %rax
	leaq	(%rax,%rdx,8), %rcx
	movq	0(%r13), %rax
	leaq	(%rsi,%rsi,2), %rdx
	salq	$2, %rsi
	leaq	(%rax,%rdx,8), %rdx
	movq	(%r15), %rax
	movq	(%rax,%r12), %rbx
	movq	48(%rsp), %rax
	movq	(%rax), %r11
	movq	(%r14), %rax
	addq	%rdi, %rbx
	addq	(%rax,%r12), %rdi
	movq	56(%rsp), %rax
	addq	%rsi, %r11
	addq	(%rax), %rsi
	xorl	%eax, %eax
	.p2align 4,,10
	.p2align 3
.L586:
	vmovupd	(%rcx), %xmm1
	movl	(%rbx,%rax,4), %r8d
	addq	$24, %rcx
	addq	$24, %rdx
	vmovups	%xmm1, -24(%rdx)
	vmovsd	-8(%rcx), %xmm0
	vmovsd	%xmm0, -8(%rdx)
	movl	%r8d, (%r11,%rax,4)
	movl	(%rdi,%rax,4), %r8d
	movl	%r8d, (%rsi,%rax,4)
	leal	(%r10,%rax), %r8d
	addq	$1, %rax
	cmpl	%eax, (%r9)
	jg	.L586
	movq	8(%rsp), %rax
	movl	(%rax), %eax
.L587:
	addq	$1, %rbp
	cmpl	%ebp, %eax
	jg	.L584
.L585:
	addq	$32, 8(%rsp)
	movq	8(%rsp), %rax
	cmpq	%rax, 64(%rsp)
	jne	.L582
.L592:
	addq	$104, %rsp
	.cfi_remember_state
	.cfi_def_cfa_offset 56
	popq	%rbx
	.cfi_def_cfa_offset 48
	popq	%rbp
	.cfi_def_cfa_offset 40
	popq	%r12
	.cfi_def_cfa_offset 32
	popq	%r13
	.cfi_def_cfa_offset 24
	popq	%r14
	.cfi_def_cfa_offset 16
	popq	%r15
	.cfi_def_cfa_offset 8
	ret
.L579:
	.cfi_restore_state
	addl	$1, %eax
	xorl	%edx, %edx
	jmp	.L588
	.cfi_endproc
.LFE15864:
	.size	_ZN17ParticleSimulator22FindScatterParticleP2PINS_24SEARCH_MODE_LONG_SCATTERENS_8TreeCellI16MyMomentMonopoleNS_8GeometryINS_20TagGeometrySizeInOutEEEEENS_12TreeParticleE5EPI_t13MySPJMonopoleNS_9TopMomentISA_S7_S1_EELNS_18CALC_DISTANCE_TYPEE1EEEvRKNS_18ReallocatableArrayIT0_EERKNSE_IT1_EERKNSE_IT2_EERNSE_IiEESS_RKNS_10DomainInfoEiSS_SS_RNSE_INS_7Vector3IdEEEESS_SS_SS_SS_SS_RNSE_IT4_EERKNS_10Orthotope3IdEEdSS_RKNS_9MortonKeyENS_17EXCHANGE_LET_MODEE._omp_fn.5, .-_ZN17ParticleSimulator22FindScatterParticleP2PINS_24SEARCH_MODE_LONG_SCATTERENS_8TreeCellI16MyMomentMonopoleNS_8GeometryINS_20TagGeometrySizeInOutEEEEENS_12TreeParticleE5EPI_t13MySPJMonopoleNS_9TopMomentISA_S7_S1_EELNS_18CALC_DISTANCE_TYPEE1EEEvRKNS_18ReallocatableArrayIT0_EERKNSE_IT1_EERKNSE_IT2_EERNSE_IiEESS_RKNS_10DomainInfoEiSS_SS_RNSE_INS_7Vector3IdEEEESS_SS_SS_SS_SS_RNSE_IT4_EERKNS_10Orthotope3IdEEdSS_RKNS_9MortonKeyENS_17EXCHANGE_LET_MODEE._omp_fn.5
	.section	.text._ZN17ParticleSimulator22FindScatterParticleP2PINS_24SEARCH_MODE_LONG_SCATTERENS_8TreeCellI16MyMomentMonopoleNS_8GeometryINS_20TagGeometrySizeInOutEEEEENS_12TreeParticleE5EPI_t13MySPJMonopoleNS_9TopMomentISA_S7_S1_EELNS_18CALC_DISTANCE_TYPEE1EEEvRKNS_18ReallocatableArrayIT0_EERKNSE_IT1_EERKNSE_IT2_EERNSE_IiEESS_RKNS_10DomainInfoEiSS_SS_RNSE_INS_7Vector3IdEEEESS_SS_SS_SS_SS_RNSE_IT4_EERKNS_10Orthotope3IdEEdSS_RKNS_9MortonKeyENS_17EXCHANGE_LET_MODEE._omp_fn.6,"axG",@progbits,_ZN17ParticleSimulator22FindScatterParticleP2PINS_24SEARCH_MODE_LONG_SCATTERENS_8TreeCellI16MyMomentMonopoleNS_8GeometryINS_20TagGeometrySizeInOutEEEEENS_12TreeParticleE5EPI_t13MySPJMonopoleNS_9TopMomentISA_S7_S1_EELNS_18CALC_DISTANCE_TYPEE1EEEvRKNS_18ReallocatableArrayIT0_EERKNSE_IT1_EERKNSE_IT2_EERNSE_IiEESS_RKNS_10DomainInfoEiSS_SS_RNSE_INS_7Vector3IdEEEESS_SS_SS_SS_SS_RNSE_IT4_EERKNS_10Orthotope3IdEEdSS_RKNS_9MortonKeyENS_17EXCHANGE_LET_MODEE,comdat
	.p2align 4
	.type	_ZN17ParticleSimulator22FindScatterParticleP2PINS_24SEARCH_MODE_LONG_SCATTERENS_8TreeCellI16MyMomentMonopoleNS_8GeometryINS_20TagGeometrySizeInOutEEEEENS_12TreeParticleE5EPI_t13MySPJMonopoleNS_9TopMomentISA_S7_S1_EELNS_18CALC_DISTANCE_TYPEE1EEEvRKNS_18ReallocatableArrayIT0_EERKNSE_IT1_EERKNSE_IT2_EERNSE_IiEESS_RKNS_10DomainInfoEiSS_SS_RNSE_INS_7Vector3IdEEEESS_SS_SS_SS_SS_RNSE_IT4_EERKNS_10Orthotope3IdEEdSS_RKNS_9MortonKeyENS_17EXCHANGE_LET_MODEE._omp_fn.6, @function
_ZN17ParticleSimulator22FindScatterParticleP2PINS_24SEARCH_MODE_LONG_SCATTERENS_8TreeCellI16MyMomentMonopoleNS_8GeometryINS_20TagGeometrySizeInOutEEEEENS_12TreeParticleE5EPI_t13MySPJMonopoleNS_9TopMomentISA_S7_S1_EELNS_18CALC_DISTANCE_TYPEE1EEEvRKNS_18ReallocatableArrayIT0_EERKNSE_IT1_EERKNSE_IT2_EERNSE_IiEESS_RKNS_10DomainInfoEiSS_SS_RNSE_INS_7Vector3IdEEEESS_SS_SS_SS_SS_RNSE_IT4_EERKNS_10Orthotope3IdEEdSS_RKNS_9MortonKeyENS_17EXCHANGE_LET_MODEE._omp_fn.6:
.LFB15865:
	.cfi_startproc
	endbr64
	pushq	%rbp
	.cfi_def_cfa_offset 16
	.cfi_offset 6, -16
	movq	%rsp, %rbp
	.cfi_def_cfa_register 6
	pushq	%r15
	pushq	%r14
	pushq	%r13
	pushq	%r12
	pushq	%rbx
	.cfi_offset 15, -24
	.cfi_offset 14, -32
	.cfi_offset 13, -40
	.cfi_offset 12, -48
	.cfi_offset 3, -56
	movq	%rdi, %rbx
	andq	$-32, %rsp
	addq	$-128, %rsp
	call	omp_get_num_threads@PLT
	movl	%eax, %r12d
	call	omp_get_thread_num@PLT
	movl	%eax, %ecx
	movl	64(%rbx), %eax
	cltd
	idivl	%r12d
	cmpl	%edx, %ecx
	jl	.L595
.L620:
	imull	%eax, %ecx
	addl	%ecx, %edx
	leal	(%rax,%rdx), %ecx
	cmpl	%ecx, %edx
	jge	.L636
	movq	40(%rbx), %rsi
	movq	16(%rbx), %rcx
	movslq	%edx, %rdx
	subl	$1, %eax
	movq	%rsi, 16(%rsp)
	movq	48(%rbx), %rsi
	movq	(%rcx), %rcx
	movq	%rsi, 32(%rsp)
	movq	24(%rbx), %rsi
	movq	%rsi, 96(%rsp)
	movq	(%rbx), %rsi
	movq	%rsi, 88(%rsp)
	movq	56(%rbx), %rsi
	movq	%rsi, 24(%rsp)
	movq	32(%rbx), %rsi
	movq	8(%rbx), %rbx
	movq	%rsi, 80(%rsp)
	movq	%rdx, %rsi
	addq	%rax, %rdx
	movq	%rdx, %rax
	salq	$5, %rsi
	movq	%rbx, 72(%rsp)
	salq	$5, %rax
	leaq	8(%rcx,%rsi), %rbx
	leaq	40(%rcx,%rax), %rax
	movq	%rbx, 56(%rsp)
	movq	%rax, 8(%rsp)
	movq	$-8, %rax
	subq	%rcx, %rax
	movq	%rax, (%rsp)
.L598:
	movq	56(%rsp), %rbx
	movq	(%rsp), %rax
	movl	(%rbx), %ecx
	addq	%rbx, %rax
	movq	%rax, 112(%rsp)
	testl	%ecx, %ecx
	jle	.L601
	movq	-8(%rbx), %rax
	movl	$0, 124(%rsp)
	xorl	%r11d, %r11d
	movq	$0, 64(%rsp)
	movq	%rax, 48(%rsp)
	movq	16(%rsp), %rax
	movq	(%rax), %rax
	movq	%rax, 40(%rsp)
	.p2align 4,,10
	.p2align 3
.L600:
	movq	64(%rsp), %rbx
	movq	48(%rsp), %rax
	movslq	(%rax,%rbx,4), %rax
	movq	40(%rsp), %rbx
	movl	(%rbx,%rax,4), %edx
	movl	4(%rbx,%rax,4), %eax
	cmpl	%eax, %edx
	jge	.L605
	movq	32(%rsp), %rbx
	subl	%edx, %eax
	movslq	%edx, %rsi
	subl	$1, %eax
	leaq	0(,%rsi,4), %r10
	movq	(%rbx), %rcx
	addq	%rsi, %rax
	movq	24(%rsp), %rbx
	leaq	4(%rcx,%rax,4), %rax
	leaq	(%rcx,%r10), %r9
	addq	(%rbx), %r10
	movq	%rax, 104(%rsp)
	.p2align 4,,10
	.p2align 3
.L604:
	movl	(%r9), %esi
	movl	4(%r9), %ebx
	cmpl	%ebx, %esi
	jge	.L616
	movq	96(%rsp), %rax
	movq	112(%rsp), %rdi
	movslq	%r11d, %r13
	movl	%ebx, %r12d
	salq	$2, %r13
	subl	%esi, %r12d
	movq	(%rax), %rax
	movq	(%rax,%rdi), %rdi
	movq	88(%rsp), %rax
	movq	(%rax), %r8
	movslq	%esi, %rax
	leaq	32(%rdi,%r13), %r14
	leaq	(%rdi,%r13), %rcx
	leaq	(%r8,%rax,4), %rdx
	cmpq	%r14, %rdx
	leaq	32(%r8,%rax,4), %r14
	setnb	%r15b
	cmpq	%r14, %rcx
	setnb	%r14b
	orb	%r14b, %r15b
	je	.L613
	leal	-1(%r12), %r14d
	cmpl	$6, %r14d
	jbe	.L613
	movl	%r12d, %r13d
	xorl	%eax, %eax
	shrl	$3, %r13d
	salq	$5, %r13
	.p2align 4,,10
	.p2align 3
.L615:
	vmovdqu	(%rcx,%rax), %xmm2
	vinserti128	$0x1, 16(%rcx,%rax), %ymm2, %ymm0
	vmovups	%xmm0, (%rdx,%rax)
	vextracti128	$0x1, %ymm0, 16(%rdx,%rax)
	addq	$32, %rax
	cmpq	%rax, %r13
	jne	.L615
	movl	%r12d, %edx
	andl	$-8, %edx
	leal	(%r11,%rdx), %eax
	addl	%edx, %esi
	cmpl	%edx, %r12d
	je	.L618
	leal	1(%rax), %edx
	cltq
	movl	(%rdi,%rax,4), %ecx
	movslq	%esi, %rax
	movl	%ecx, (%r8,%rax,4)
	leal	1(%rsi), %eax
	cmpl	%eax, %ebx
	jle	.L618
	movslq	%edx, %rdx
	cltq
	leaq	0(,%rdx,4), %r13
	movl	(%rdi,%rdx,4), %edx
	leaq	0(,%rax,4), %rcx
	movl	%edx, (%r8,%rax,4)
	leal	2(%rsi), %eax
	cmpl	%eax, %ebx
	jle	.L618
	movl	4(%rdi,%r13), %eax
	movl	%eax, 4(%r8,%rcx)
	leal	3(%rsi), %eax
	cmpl	%eax, %ebx
	jle	.L618
	movl	8(%rdi,%r13), %eax
	movl	%eax, 8(%r8,%rcx)
	leal	4(%rsi), %eax
	cmpl	%eax, %ebx
	jle	.L618
	movl	12(%rdi,%r13), %eax
	movl	%eax, 12(%r8,%rcx)
	leal	5(%rsi), %eax
	cmpl	%eax, %ebx
	jle	.L618
	movl	16(%rdi,%r13), %eax
	addl	$6, %esi
	movl	%eax, 16(%r8,%rcx)
	cmpl	%esi, %ebx
	jle	.L618
	movl	20(%rdi,%r13), %eax
	movl	%eax, 20(%r8,%rcx)
.L618:
	addl	%r12d, %r11d
.L616:
	movl	(%r10), %esi
	movl	4(%r10), %ebx
	cmpl	%ebx, %esi
	jge	.L609
	movq	80(%rsp), %rax
	movq	112(%rsp), %rdi
	movl	%ebx, %r12d
	movslq	124(%rsp), %r13
	subl	%esi, %r12d
	movq	(%rax), %rax
	salq	$2, %r13
	movq	(%rax,%rdi), %rdi
	movq	72(%rsp), %rax
	movq	(%rax), %r8
	movslq	%esi, %rax
	leaq	32(%rdi,%r13), %r14
	leaq	(%rdi,%r13), %rcx
	leaq	(%r8,%rax,4), %rdx
	cmpq	%r14, %rdx
	leaq	32(%r8,%rax,4), %r14
	setnb	%r15b
	cmpq	%r14, %rcx
	setnb	%r14b
	orb	%r14b, %r15b
	je	.L606
	leal	-1(%r12), %r14d
	cmpl	$6, %r14d
	jbe	.L606
	movl	%r12d, %r13d
	xorl	%eax, %eax
	shrl	$3, %r13d
	salq	$5, %r13
	.p2align 4,,10
	.p2align 3
.L608:
	vmovdqu	(%rcx,%rax), %xmm1
	vinserti128	$0x1, 16(%rcx,%rax), %ymm1, %ymm0
	vmovups	%xmm0, (%rdx,%rax)
	vextracti128	$0x1, %ymm0, 16(%rdx,%rax)
	addq	$32, %rax
	cmpq	%r13, %rax
	jne	.L608
	movl	124(%rsp), %eax
	movl	%r12d, %edx
	andl	$-8, %edx
	addl	%edx, %eax
	addl	%edx, %esi
	cmpl	%r12d, %edx
	je	.L611
	leal	1(%rax), %edx
	cltq
	movl	(%rdi,%rax,4), %ecx
	movslq	%esi, %rax
	movl	%ecx, (%r8,%rax,4)
	leal	1(%rsi), %eax
	cmpl	%eax, %ebx
	jle	.L611
	movslq	%edx, %rdx
	cltq
	leaq	0(,%rdx,4), %r13
	movl	(%rdi,%rdx,4), %edx
	leaq	0(,%rax,4), %rcx
	movl	%edx, (%r8,%rax,4)
	leal	2(%rsi), %eax
	cmpl	%eax, %ebx
	jle	.L611
	movl	4(%rdi,%r13), %eax
	movl	%eax, 4(%r8,%rcx)
	leal	3(%rsi), %eax
	cmpl	%eax, %ebx
	jle	.L611
	movl	8(%rdi,%r13), %eax
	movl	%eax, 8(%r8,%rcx)
	leal	4(%rsi), %eax
	cmpl	%eax, %ebx
	jle	.L611
	movl	12(%rdi,%r13), %eax
	movl	%eax, 12(%r8,%rcx)
	leal	5(%rsi), %eax
	cmpl	%eax, %ebx
	jle	.L611
	movl	16(%rdi,%r13), %eax
	addl	$6, %esi
	movl	%eax, 16(%r8,%rcx)
	cmpl	%esi, %ebx
	jle	.L611
	movl	20(%rdi,%r13), %eax
	movl	%eax, 20(%r8,%rcx)
.L611:
	addl	%r12d, 124(%rsp)
.L609:
	addq	$4, %r9
	addq	$4, %r10
	cmpq	104(%rsp), %r9
	jne	.L604
	movq	56(%rsp), %rax
	movl	(%rax), %ecx
.L605:
	addq	$1, 64(%rsp)
	movq	64(%rsp), %rax
	cmpl	%eax, %ecx
	jg	.L600
.L601:
	addq	$32, 56(%rsp)
	movq	56(%rsp), %rax
	cmpq	8(%rsp), %rax
	jne	.L598
	vzeroupper
.L636:
	leaq	-40(%rbp), %rsp
	popq	%rbx
	popq	%r12
	popq	%r13
	popq	%r14
	popq	%r15
	popq	%rbp
	.cfi_remember_state
	.cfi_def_cfa 7, 8
	ret
	.p2align 4,,10
	.p2align 3
.L606:
	.cfi_restore_state
	movq	%rax, %rdx
	negq	%rdx
	leaq	0(%r13,%rdx,4), %rdx
	addq	%rdx, %rdi
	.p2align 4,,10
	.p2align 3
.L612:
	movl	(%rdi,%rax,4), %edx
	movl	%edx, (%r8,%rax,4)
	addq	$1, %rax
	cmpl	%eax, %ebx
	jg	.L612
	jmp	.L611
	.p2align 4,,10
	.p2align 3
.L613:
	movq	%rax, %rdx
	negq	%rdx
	leaq	0(%r13,%rdx,4), %rdx
	addq	%rdx, %rdi
	.p2align 4,,10
	.p2align 3
.L619:
	movl	(%rdi,%rax,4), %edx
	movl	%edx, (%r8,%rax,4)
	addq	$1, %rax
	cmpl	%eax, %ebx
	jg	.L619
	jmp	.L618
.L595:
	addl	$1, %eax
	xorl	%edx, %edx
	jmp	.L620
	.cfi_endproc
.LFE15865:
	.size	_ZN17ParticleSimulator22FindScatterParticleP2PINS_24SEARCH_MODE_LONG_SCATTERENS_8TreeCellI16MyMomentMonopoleNS_8GeometryINS_20TagGeometrySizeInOutEEEEENS_12TreeParticleE5EPI_t13MySPJMonopoleNS_9TopMomentISA_S7_S1_EELNS_18CALC_DISTANCE_TYPEE1EEEvRKNS_18ReallocatableArrayIT0_EERKNSE_IT1_EERKNSE_IT2_EERNSE_IiEESS_RKNS_10DomainInfoEiSS_SS_RNSE_INS_7Vector3IdEEEESS_SS_SS_SS_SS_RNSE_IT4_EERKNS_10Orthotope3IdEEdSS_RKNS_9MortonKeyENS_17EXCHANGE_LET_MODEE._omp_fn.6, .-_ZN17ParticleSimulator22FindScatterParticleP2PINS_24SEARCH_MODE_LONG_SCATTERENS_8TreeCellI16MyMomentMonopoleNS_8GeometryINS_20TagGeometrySizeInOutEEEEENS_12TreeParticleE5EPI_t13MySPJMonopoleNS_9TopMomentISA_S7_S1_EELNS_18CALC_DISTANCE_TYPEE1EEEvRKNS_18ReallocatableArrayIT0_EERKNSE_IT1_EERKNSE_IT2_EERNSE_IiEESS_RKNS_10DomainInfoEiSS_SS_RNSE_INS_7Vector3IdEEEESS_SS_SS_SS_SS_RNSE_IT4_EERKNS_10Orthotope3IdEEdSS_RKNS_9MortonKeyENS_17EXCHANGE_LET_MODEE._omp_fn.6
	.section	.text._ZN17ParticleSimulator8PackDataIiEEvPKNS_18ReallocatableArrayIT_EEiRS3_i._omp_fn.0,"axG",@progbits,_ZN17ParticleSimulator8PackDataIiEEvPKNS_18ReallocatableArrayIT_EEiRS3_i,comdat
	.p2align 4
	.type	_ZN17ParticleSimulator8PackDataIiEEvPKNS_18ReallocatableArrayIT_EEiRS3_i._omp_fn.0, @function
_ZN17ParticleSimulator8PackDataIiEEvPKNS_18ReallocatableArrayIT_EEiRS3_i._omp_fn.0:
.LFB15866:
	.cfi_startproc
	endbr64
	pushq	%rbp
	.cfi_def_cfa_offset 16
	.cfi_offset 6, -16
	movq	%rsp, %rbp
	.cfi_def_cfa_register 6
	pushq	%r12
	pushq	%rbx
	.cfi_offset 12, -24
	.cfi_offset 3, -32
	movq	%rdi, %rbx
	andq	$-32, %rsp
	call	omp_get_num_threads@PLT
	movl	%eax, %r12d
	call	omp_get_thread_num@PLT
	movl	%eax, %ecx
	movl	8(%rbx), %eax
	cltd
	idivl	%r12d
	cmpl	%edx, %ecx
	jl	.L639
.L644:
	imull	%eax, %ecx
	addl	%ecx, %edx
	xorl	%ecx, %ecx
	leal	(%rax,%rdx), %esi
	cmpl	%esi, %edx
	jge	.L640
	subl	$1, %eax
	movq	(%rbx), %r8
	cmpl	$35, %eax
	jbe	.L646
	movslq	%edx, %rcx
	movl	%eax, %edi
	vpxor	%xmm3, %xmm3, %xmm3
	salq	$5, %rcx
	shrl	$3, %edi
	leaq	8(%r8,%rcx), %rcx
	salq	$8, %rdi
	addq	%rcx, %rdi
	.p2align 4,,10
	.p2align 3
.L642:
	vmovdqu	(%rcx), %xmm6
	vmovdqu	32(%rcx), %xmm7
	addq	$256, %rcx
	vinserti128	$0x1, -208(%rcx), %ymm7, %ymm2
	vmovdqu	-160(%rcx), %xmm7
	vinserti128	$0x1, -240(%rcx), %ymm6, %ymm0
	vmovdqu	-192(%rcx), %xmm6
	vinserti128	$0x1, -144(%rcx), %ymm7, %ymm4
	vmovdqu	-128(%rcx), %xmm5
	vperm2i128	$32, %ymm2, %ymm0, %ymm1
	vperm2i128	$49, %ymm2, %ymm0, %ymm0
	vmovdqu	-64(%rcx), %xmm7
	vpshufd	$216, %ymm0, %ymm0
	vpshufd	$216, %ymm1, %ymm1
	vpunpcklqdq	%ymm0, %ymm1, %ymm1
	vinserti128	$0x1, -176(%rcx), %ymm6, %ymm0
	vmovdqu	-96(%rcx), %xmm6
	vperm2i128	$32, %ymm4, %ymm0, %ymm2
	vperm2i128	$49, %ymm4, %ymm0, %ymm0
	vinserti128	$0x1, -80(%rcx), %ymm6, %ymm4
	vpshufd	$216, %ymm2, %ymm2
	vpshufd	$216, %ymm0, %ymm0
	vpunpcklqdq	%ymm0, %ymm2, %ymm0
	vperm2i128	$32, %ymm0, %ymm1, %ymm2
	vperm2i128	$49, %ymm0, %ymm1, %ymm1
	vpshufd	$216, %ymm2, %ymm0
	vinserti128	$0x1, -112(%rcx), %ymm5, %ymm2
	vpshufd	$216, %ymm1, %ymm1
	vmovdqu	-32(%rcx), %xmm5
	vpunpcklqdq	%ymm1, %ymm0, %ymm0
	vinserti128	$0x1, -16(%rcx), %ymm5, %ymm5
	vperm2i128	$32, %ymm4, %ymm2, %ymm1
	vperm2i128	$49, %ymm4, %ymm2, %ymm2
	vpshufd	$216, %ymm2, %ymm2
	vpshufd	$216, %ymm1, %ymm1
	vpunpcklqdq	%ymm2, %ymm1, %ymm1
	vinserti128	$0x1, -48(%rcx), %ymm7, %ymm2
	vperm2i128	$32, %ymm5, %ymm2, %ymm4
	vperm2i128	$49, %ymm5, %ymm2, %ymm2
	vpshufd	$216, %ymm2, %ymm2
	vpshufd	$216, %ymm4, %ymm4
	vpunpcklqdq	%ymm2, %ymm4, %ymm4
	vperm2i128	$32, %ymm4, %ymm1, %ymm2
	vperm2i128	$49, %ymm4, %ymm1, %ymm1
	vpshufd	$216, %ymm2, %ymm2
	vpshufd	$216, %ymm1, %ymm1
	vpunpcklqdq	%ymm1, %ymm2, %ymm1
	vperm2i128	$32, %ymm1, %ymm0, %ymm2
	vperm2i128	$49, %ymm1, %ymm0, %ymm0
	vpshufd	$216, %ymm0, %ymm0
	vpshufd	$216, %ymm2, %ymm1
	vpunpcklqdq	%ymm0, %ymm1, %ymm0
	vpaddd	%ymm0, %ymm3, %ymm3
	cmpq	%rdi, %rcx
	jne	.L642
	vmovdqa	%xmm3, %xmm0
	vextracti128	$0x1, %ymm3, %xmm3
	andl	$-8, %eax
	vpaddd	%xmm3, %xmm0, %xmm3
	addl	%eax, %edx
	vpsrldq	$8, %xmm3, %xmm0
	vpaddd	%xmm0, %xmm3, %xmm3
	vpsrldq	$4, %xmm3, %xmm0
	vpaddd	%xmm0, %xmm3, %xmm3
	vmovd	%xmm3, %ecx
	vzeroupper
.L641:
	movslq	%edx, %rdx
	.p2align 4,,10
	.p2align 3
.L643:
	movq	%rdx, %rax
	addq	$1, %rdx
	salq	$5, %rax
	addl	8(%r8,%rax), %ecx
	cmpl	%edx, %esi
	jg	.L643
.L640:
	lock addl	%ecx, 12(%rbx)
	leaq	-16(%rbp), %rsp
	popq	%rbx
	popq	%r12
	popq	%rbp
	.cfi_remember_state
	.cfi_def_cfa 7, 8
	ret
	.p2align 4,,10
	.p2align 3
.L639:
	.cfi_restore_state
	addl	$1, %eax
	xorl	%edx, %edx
	jmp	.L644
	.p2align 4,,10
	.p2align 3
.L646:
	xorl	%ecx, %ecx
	jmp	.L641
	.cfi_endproc
.LFE15866:
	.size	_ZN17ParticleSimulator8PackDataIiEEvPKNS_18ReallocatableArrayIT_EEiRS3_i._omp_fn.0, .-_ZN17ParticleSimulator8PackDataIiEEvPKNS_18ReallocatableArrayIT_EEiRS3_i._omp_fn.0
	.section	.text._ZN17ParticleSimulator8PackDataIiEEvPKNS_18ReallocatableArrayIT_EEiRS3_i._omp_fn.1,"axG",@progbits,_ZN17ParticleSimulator8PackDataIiEEvPKNS_18ReallocatableArrayIT_EEiRS3_i,comdat
	.p2align 4
	.type	_ZN17ParticleSimulator8PackDataIiEEvPKNS_18ReallocatableArrayIT_EEiRS3_i._omp_fn.1, @function
_ZN17ParticleSimulator8PackDataIiEEvPKNS_18ReallocatableArrayIT_EEiRS3_i._omp_fn.1:
.LFB15867:
	.cfi_startproc
	endbr64
	pushq	%rbp
	.cfi_def_cfa_offset 16
	.cfi_offset 6, -16
	movq	%rsp, %rbp
	.cfi_def_cfa_register 6
	pushq	%r13
	pushq	%r12
	pushq	%rbx
	.cfi_offset 13, -24
	.cfi_offset 12, -32
	.cfi_offset 3, -40
	movq	%rdi, %rbx
	andq	$-32, %rsp
	call	omp_get_num_threads@PLT
	movl	%eax, %r12d
	call	omp_get_thread_num@PLT
	movl	%eax, %esi
	movl	16(%rbx), %eax
	cltd
	idivl	%r12d
	cmpl	%edx, %esi
	jl	.L653
.L668:
	imull	%eax, %esi
	addl	%edx, %esi
	leal	(%rax,%rsi), %r9d
	cmpl	%r9d, %esi
	jge	.L677
	movl	20(%rbx), %r11d
	movq	(%rbx), %r8
	movq	8(%rbx), %r10
	testl	%esi, %esi
	jg	.L655
	leal	-1(%r9), %r12d
	movl	$0, %eax
	movslq	%esi, %rcx
	movslq	%r11d, %r13
	testl	%r12d, %r12d
	cmovg	%eax, %r12d
	salq	$5, %rcx
	addq	%r8, %rcx
	salq	$2, %r13
	.p2align 4,,10
	.p2align 3
.L657:
	movl	8(%rcx), %edx
	testl	%edx, %edx
	jle	.L667
	movq	(%r10), %rdi
	movq	(%rcx), %rbx
	xorl	%eax, %eax
	addq	%r13, %rdi
	.p2align 4,,10
	.p2align 3
.L666:
	movl	(%rbx,%rax,4), %edx
	movl	%edx, (%rdi,%rax,4)
	addq	$1, %rax
	cmpl	%eax, 8(%rcx)
	jg	.L666
.L667:
	addl	$1, %esi
	addq	$32, %rcx
	cmpl	%esi, %r12d
	jge	.L657
	cmpl	%esi, %r9d
	jle	.L677
.L655:
	movslq	%esi, %rdi
	movl	$1, %ebx
	salq	$5, %rdi
	addq	%r8, %rdi
	.p2align 4,,10
	.p2align 3
.L664:
	testl	%esi, %esi
	movl	%ebx, %edx
	cmovg	%esi, %edx
	cmpl	$36, %esi
	jle	.L669
	subl	$1, %edx
	vpxor	%xmm3, %xmm3, %xmm3
	movq	%r8, %rax
	movl	%edx, %ecx
	shrl	$3, %ecx
	salq	$8, %rcx
	addq	%r8, %rcx
	.p2align 4,,10
	.p2align 3
.L660:
	vmovdqu	8(%rax), %xmm6
	vmovdqu	40(%rax), %xmm7
	addq	$256, %rax
	vinserti128	$0x1, -200(%rax), %ymm7, %ymm2
	vmovdqu	-152(%rax), %xmm7
	vinserti128	$0x1, -232(%rax), %ymm6, %ymm0
	vmovdqu	-184(%rax), %xmm6
	vinserti128	$0x1, -136(%rax), %ymm7, %ymm4
	vmovdqu	-120(%rax), %xmm5
	vperm2i128	$32, %ymm2, %ymm0, %ymm1
	vperm2i128	$49, %ymm2, %ymm0, %ymm0
	vmovdqu	-56(%rax), %xmm7
	vpshufd	$216, %ymm0, %ymm0
	vpshufd	$216, %ymm1, %ymm1
	vpunpcklqdq	%ymm0, %ymm1, %ymm1
	vinserti128	$0x1, -168(%rax), %ymm6, %ymm0
	vmovdqu	-88(%rax), %xmm6
	vperm2i128	$32, %ymm4, %ymm0, %ymm2
	vperm2i128	$49, %ymm4, %ymm0, %ymm0
	vinserti128	$0x1, -72(%rax), %ymm6, %ymm4
	vpshufd	$216, %ymm2, %ymm2
	vpshufd	$216, %ymm0, %ymm0
	vpunpcklqdq	%ymm0, %ymm2, %ymm0
	vperm2i128	$32, %ymm0, %ymm1, %ymm2
	vperm2i128	$49, %ymm0, %ymm1, %ymm1
	vpshufd	$216, %ymm2, %ymm0
	vinserti128	$0x1, -104(%rax), %ymm5, %ymm2
	vpshufd	$216, %ymm1, %ymm1
	vmovdqu	-24(%rax), %xmm5
	vpunpcklqdq	%ymm1, %ymm0, %ymm0
	vinserti128	$0x1, -8(%rax), %ymm5, %ymm5
	vperm2i128	$32, %ymm4, %ymm2, %ymm1
	vperm2i128	$49, %ymm4, %ymm2, %ymm2
	vpshufd	$216, %ymm2, %ymm2
	vpshufd	$216, %ymm1, %ymm1
	vpunpcklqdq	%ymm2, %ymm1, %ymm1
	vinserti128	$0x1, -40(%rax), %ymm7, %ymm2
	vperm2i128	$32, %ymm5, %ymm2, %ymm4
	vperm2i128	$49, %ymm5, %ymm2, %ymm2
	vpshufd	$216, %ymm2, %ymm2
	vpshufd	$216, %ymm4, %ymm4
	vpunpcklqdq	%ymm2, %ymm4, %ymm4
	vperm2i128	$32, %ymm4, %ymm1, %ymm2
	vperm2i128	$49, %ymm4, %ymm1, %ymm1
	vpshufd	$216, %ymm2, %ymm2
	vpshufd	$216, %ymm1, %ymm1
	vpunpcklqdq	%ymm1, %ymm2, %ymm1
	vperm2i128	$32, %ymm1, %ymm0, %ymm2
	vperm2i128	$49, %ymm1, %ymm0, %ymm0
	vpshufd	$216, %ymm0, %ymm0
	vpshufd	$216, %ymm2, %ymm1
	vpunpcklqdq	%ymm0, %ymm1, %ymm0
	vpaddd	%ymm0, %ymm3, %ymm3
	cmpq	%rax, %rcx
	jne	.L660
	vmovdqa	%xmm3, %xmm0
	vextracti128	$0x1, %ymm3, %xmm3
	andl	$-8, %edx
	vpaddd	%xmm3, %xmm0, %xmm3
	vpsrldq	$8, %xmm3, %xmm0
	vpaddd	%xmm0, %xmm3, %xmm3
	vpsrldq	$4, %xmm3, %xmm0
	vpaddd	%xmm0, %xmm3, %xmm3
	vmovd	%xmm3, %ecx
	addl	%r11d, %ecx
.L659:
	movslq	%edx, %rax
	.p2align 4,,10
	.p2align 3
.L661:
	movq	%rax, %rdx
	addq	$1, %rax
	salq	$5, %rdx
	addl	8(%r8,%rdx), %ecx
	cmpl	%eax, %esi
	jg	.L661
	movl	8(%rdi), %eax
	testl	%eax, %eax
	jle	.L662
	movq	(%r10), %rax
	movslq	%ecx, %rcx
	movq	(%rdi), %r12
	leaq	(%rax,%rcx,4), %rcx
	xorl	%eax, %eax
	.p2align 4,,10
	.p2align 3
.L663:
	movl	(%r12,%rax,4), %edx
	movl	%edx, (%rcx,%rax,4)
	addq	$1, %rax
	cmpl	%eax, 8(%rdi)
	jg	.L663
.L662:
	addl	$1, %esi
	addq	$32, %rdi
	cmpl	%esi, %r9d
	jg	.L664
	vzeroupper
.L677:
	leaq	-24(%rbp), %rsp
	popq	%rbx
	popq	%r12
	popq	%r13
	popq	%rbp
	.cfi_remember_state
	.cfi_def_cfa 7, 8
	ret
	.p2align 4,,10
	.p2align 3
.L669:
	.cfi_restore_state
	movl	%r11d, %ecx
	xorl	%edx, %edx
	jmp	.L659
.L653:
	addl	$1, %eax
	xorl	%edx, %edx
	jmp	.L668
	.cfi_endproc
.LFE15867:
	.size	_ZN17ParticleSimulator8PackDataIiEEvPKNS_18ReallocatableArrayIT_EEiRS3_i._omp_fn.1, .-_ZN17ParticleSimulator8PackDataIiEEvPKNS_18ReallocatableArrayIT_EEiRS3_i._omp_fn.1
	.section	.text._ZN17ParticleSimulator18ExchangeNumberLongERKNS_18ReallocatableArrayIiEERS1_S3_S4_S3_S3_RKNS_8CommInfoE._omp_fn.0,"axG",@progbits,_ZN17ParticleSimulator18ExchangeNumberLongERKNS_18ReallocatableArrayIiEERS1_S3_S4_S3_S3_RKNS_8CommInfoE,comdat
	.p2align 4
	.type	_ZN17ParticleSimulator18ExchangeNumberLongERKNS_18ReallocatableArrayIiEERS1_S3_S4_S3_S3_RKNS_8CommInfoE._omp_fn.0, @function
_ZN17ParticleSimulator18ExchangeNumberLongERKNS_18ReallocatableArrayIiEERS1_S3_S4_S3_S3_RKNS_8CommInfoE._omp_fn.0:
.LFB15868:
	.cfi_startproc
	endbr64
	pushq	%r12
	.cfi_def_cfa_offset 16
	.cfi_offset 12, -16
	pushq	%rbp
	.cfi_def_cfa_offset 24
	.cfi_offset 6, -24
	pushq	%rbx
	.cfi_def_cfa_offset 32
	.cfi_offset 3, -32
	movq	%rdi, %rbx
	movq	16(%rdi), %r12
	call	omp_get_num_threads@PLT
	movl	%eax, %ebp
	call	omp_get_thread_num@PLT
	movl	%eax, %ecx
	movl	8(%r12), %eax
	cltd
	idivl	%ebp
	cmpl	%edx, %ecx
	jl	.L680
.L683:
	imull	%eax, %ecx
	addl	%ecx, %edx
	addl	%edx, %eax
	cmpl	%eax, %edx
	jge	.L685
	movq	(%rbx), %rcx
	movq	(%r12), %r10
	movslq	%edx, %rdx
	movq	(%rcx), %r9
	movq	24(%rbx), %rcx
	movq	(%rcx), %rsi
	movq	8(%rbx), %rcx
	movq	(%rcx), %r8
	.p2align 4,,10
	.p2align 3
.L682:
	movslq	(%r10,%rdx,4), %rcx
	movl	(%r9,%rcx,4), %edi
	movl	%edi, (%rsi,%rdx,8)
	movl	(%r8,%rcx,4), %ecx
	movl	%ecx, 4(%rsi,%rdx,8)
	addq	$1, %rdx
	cmpl	%edx, %eax
	jg	.L682
.L685:
	popq	%rbx
	.cfi_remember_state
	.cfi_def_cfa_offset 24
	popq	%rbp
	.cfi_def_cfa_offset 16
	popq	%r12
	.cfi_def_cfa_offset 8
	ret
	.p2align 4,,10
	.p2align 3
.L680:
	.cfi_restore_state
	addl	$1, %eax
	xorl	%edx, %edx
	jmp	.L683
	.cfi_endproc
.LFE15868:
	.size	_ZN17ParticleSimulator18ExchangeNumberLongERKNS_18ReallocatableArrayIiEERS1_S3_S4_S3_S3_RKNS_8CommInfoE._omp_fn.0, .-_ZN17ParticleSimulator18ExchangeNumberLongERKNS_18ReallocatableArrayIiEERS1_S3_S4_S3_S3_RKNS_8CommInfoE._omp_fn.0
	.section	.text._ZN17ParticleSimulator18ExchangeNumberLongERKNS_18ReallocatableArrayIiEERS1_S3_S4_S3_S3_RKNS_8CommInfoE._omp_fn.1,"axG",@progbits,_ZN17ParticleSimulator18ExchangeNumberLongERKNS_18ReallocatableArrayIiEERS1_S3_S4_S3_S3_RKNS_8CommInfoE,comdat
	.p2align 4
	.type	_ZN17ParticleSimulator18ExchangeNumberLongERKNS_18ReallocatableArrayIiEERS1_S3_S4_S3_S3_RKNS_8CommInfoE._omp_fn.1, @function
_ZN17ParticleSimulator18ExchangeNumberLongERKNS_18ReallocatableArrayIiEERS1_S3_S4_S3_S3_RKNS_8CommInfoE._omp_fn.1:
.LFB15869:
	.cfi_startproc
	endbr64
	pushq	%r12
	.cfi_def_cfa_offset 16
	.cfi_offset 12, -16
	pushq	%rbp
	.cfi_def_cfa_offset 24
	.cfi_offset 6, -24
	pushq	%rbx
	.cfi_def_cfa_offset 32
	.cfi_offset 3, -32
	movq	%rdi, %rbx
	call	omp_get_num_threads@PLT
	movl	%eax, %ebp
	call	omp_get_thread_num@PLT
	movl	%eax, %ecx
	movl	16(%rbx), %eax
	cltd
	idivl	%ebp
	cmpl	%edx, %ecx
	jl	.L688
.L692:
	imull	%eax, %ecx
	addl	%ecx, %edx
	leal	(%rax,%rdx), %esi
	cmpl	%esi, %edx
	jge	.L697
	movq	8(%rbx), %rcx
	movslq	%edx, %rdx
	leal	-1(%rax), %r10d
	leaq	0(,%rdx,4), %rdi
	movq	(%rcx), %r8
	movq	(%rbx), %rcx
	movq	(%rcx), %r9
	leaq	1(%rdx), %rcx
	leaq	(%rcx,%r10), %rax
	salq	$2, %rax
	leaq	(%r9,%rdi), %rbp
	addq	%r8, %rdi
	leaq	(%r8,%rax), %r11
	cmpq	%r11, %rbp
	jnb	.L693
	addq	%r9, %rax
	cmpq	%rax, %rdi
	jb	.L690
.L693:
	leaq	4(,%r10,4), %r12
	xorl	%esi, %esi
	movq	%r12, %rdx
	call	memset@PLT
	popq	%rbx
	.cfi_remember_state
	.cfi_def_cfa_offset 24
	movq	%r12, %rdx
	movq	%rbp, %rdi
	xorl	%esi, %esi
	popq	%rbp
	.cfi_def_cfa_offset 16
	popq	%r12
	.cfi_def_cfa_offset 8
	jmp	memset@PLT
	.p2align 4,,10
	.p2align 3
.L699:
	.cfi_restore_state
	addq	$1, %rcx
.L690:
	movl	$0, (%r8,%rdx,4)
	movl	$0, (%r9,%rdx,4)
	movq	%rcx, %rdx
	cmpl	%ecx, %esi
	jg	.L699
.L697:
	popq	%rbx
	.cfi_remember_state
	.cfi_def_cfa_offset 24
	popq	%rbp
	.cfi_def_cfa_offset 16
	popq	%r12
	.cfi_def_cfa_offset 8
	ret
	.p2align 4,,10
	.p2align 3
.L688:
	.cfi_restore_state
	addl	$1, %eax
	xorl	%edx, %edx
	jmp	.L692
	.cfi_endproc
.LFE15869:
	.size	_ZN17ParticleSimulator18ExchangeNumberLongERKNS_18ReallocatableArrayIiEERS1_S3_S4_S3_S3_RKNS_8CommInfoE._omp_fn.1, .-_ZN17ParticleSimulator18ExchangeNumberLongERKNS_18ReallocatableArrayIiEERS1_S3_S4_S3_S3_RKNS_8CommInfoE._omp_fn.1
	.section	.text._ZN17ParticleSimulator18ExchangeNumberLongERKNS_18ReallocatableArrayIiEERS1_S3_S4_S3_S3_RKNS_8CommInfoE._omp_fn.2,"axG",@progbits,_ZN17ParticleSimulator18ExchangeNumberLongERKNS_18ReallocatableArrayIiEERS1_S3_S4_S3_S3_RKNS_8CommInfoE,comdat
	.p2align 4
	.type	_ZN17ParticleSimulator18ExchangeNumberLongERKNS_18ReallocatableArrayIiEERS1_S3_S4_S3_S3_RKNS_8CommInfoE._omp_fn.2, @function
_ZN17ParticleSimulator18ExchangeNumberLongERKNS_18ReallocatableArrayIiEERS1_S3_S4_S3_S3_RKNS_8CommInfoE._omp_fn.2:
.LFB15870:
	.cfi_startproc
	endbr64
	pushq	%r12
	.cfi_def_cfa_offset 16
	.cfi_offset 12, -16
	pushq	%rbp
	.cfi_def_cfa_offset 24
	.cfi_offset 6, -24
	pushq	%rbx
	.cfi_def_cfa_offset 32
	.cfi_offset 3, -32
	movq	%rdi, %rbx
	movq	16(%rdi), %r12
	call	omp_get_num_threads@PLT
	movl	%eax, %ebp
	call	omp_get_thread_num@PLT
	movl	%eax, %ecx
	movl	8(%r12), %eax
	cltd
	idivl	%ebp
	cmpl	%edx, %ecx
	jl	.L701
.L704:
	imull	%eax, %ecx
	addl	%ecx, %edx
	addl	%edx, %eax
	cmpl	%eax, %edx
	jge	.L706
	movq	24(%rbx), %rcx
	movq	(%r12), %r10
	movslq	%edx, %rdx
	movq	(%rcx), %rsi
	movq	(%rbx), %rcx
	movq	(%rcx), %r9
	movq	8(%rbx), %rcx
	movq	(%rcx), %r8
	.p2align 4,,10
	.p2align 3
.L703:
	movl	(%rsi,%rdx,8), %edi
	movslq	(%r10,%rdx,4), %rcx
	movl	%edi, (%r9,%rcx,4)
	movl	4(%rsi,%rdx,8), %edi
	addq	$1, %rdx
	movl	%edi, (%r8,%rcx,4)
	cmpl	%edx, %eax
	jg	.L703
.L706:
	popq	%rbx
	.cfi_remember_state
	.cfi_def_cfa_offset 24
	popq	%rbp
	.cfi_def_cfa_offset 16
	popq	%r12
	.cfi_def_cfa_offset 8
	ret
	.p2align 4,,10
	.p2align 3
.L701:
	.cfi_restore_state
	addl	$1, %eax
	xorl	%edx, %edx
	jmp	.L704
	.cfi_endproc
.LFE15870:
	.size	_ZN17ParticleSimulator18ExchangeNumberLongERKNS_18ReallocatableArrayIiEERS1_S3_S4_S3_S3_RKNS_8CommInfoE._omp_fn.2, .-_ZN17ParticleSimulator18ExchangeNumberLongERKNS_18ReallocatableArrayIiEERS1_S3_S4_S3_S3_RKNS_8CommInfoE._omp_fn.2
	.section	.text._ZN17ParticleSimulator18ReallocatableArrayINS_10Orthotope3IdEEE12ReallocInnerEi._omp_fn.0,"axG",@progbits,_ZN17ParticleSimulator9CommTable21setPosDomainAllgatherERKNS_10DomainInfoERKNS_10Orthotope3IdEE,comdat
	.p2align 4
	.type	_ZN17ParticleSimulator18ReallocatableArrayINS_10Orthotope3IdEEE12ReallocInnerEi._omp_fn.0, @function
_ZN17ParticleSimulator18ReallocatableArrayINS_10Orthotope3IdEEE12ReallocInnerEi._omp_fn.0:
.LFB15872:
	.cfi_startproc
	endbr64
	pushq	%rbp
	.cfi_def_cfa_offset 16
	.cfi_offset 6, -16
	movq	%rsp, %rbp
	.cfi_def_cfa_register 6
	pushq	%r12
	.cfi_offset 12, -24
	movq	%rdi, %r12
	pushq	%rbx
	andq	$-32, %rsp
	.cfi_offset 3, -32
	call	omp_get_num_threads@PLT
	movl	%eax, %ebx
	call	omp_get_thread_num@PLT
	movl	%eax, %ecx
	movq	(%r12), %rax
	movl	8(%rax), %eax
	cltd
	idivl	%ebx
	cmpl	%edx, %ecx
	jl	.L709
.L716:
	imull	%eax, %ecx
	addl	%ecx, %edx
	leal	(%rax,%rdx), %ecx
	cmpl	%ecx, %edx
	jge	.L726
	movslq	%edx, %r10
	movq	16(%r12), %r8
	movq	8(%r12), %rdi
	leaq	(%r10,%r10,2), %rsi
	salq	$4, %rsi
	leaq	96(%rsi), %r9
	leaq	(%rdi,%rsi), %rcx
	addq	%r8, %rsi
	leaq	(%r8,%r9), %r11
	cmpq	%r11, %rcx
	setnb	%r11b
	addq	%rdi, %r9
	cmpq	%r9, %rsi
	setnb	%r9b
	orb	%r9b, %r11b
	je	.L711
	cmpl	$1, %eax
	je	.L711
	movl	%eax, %r9d
	shrl	%r9d
	leaq	(%r9,%r9,2), %r9
	salq	$5, %r9
	addq	%rcx, %r9
	.p2align 4,,10
	.p2align 3
.L712:
	vmovupd	(%rcx), %xmm3
	vmovupd	32(%rcx), %xmm4
	addq	$96, %rcx
	addq	$96, %rsi
	vmovupd	-32(%rcx), %xmm5
	vinsertf128	$0x1, -80(%rcx), %ymm3, %ymm2
	vinsertf128	$0x1, -48(%rcx), %ymm4, %ymm1
	vinsertf128	$0x1, -16(%rcx), %ymm5, %ymm0
	vmovups	%xmm2, -96(%rsi)
	vextractf128	$0x1, %ymm2, -80(%rsi)
	vmovups	%xmm1, -64(%rsi)
	vextractf128	$0x1, %ymm1, -48(%rsi)
	vextractf128	$0x1, %ymm0, -16(%rsi)
	vmovups	%xmm0, -32(%rsi)
	cmpq	%r9, %rcx
	jne	.L712
	movl	%eax, %ecx
	andl	$-2, %ecx
	addl	%ecx, %edx
	cmpl	%ecx, %eax
	je	.L725
	movslq	%edx, %rdx
	leaq	(%rdx,%rdx,2), %rax
	salq	$4, %rax
	leaq	(%rdi,%rax), %rdx
	addq	%r8, %rax
	vmovsd	24(%rdx), %xmm0
	vmovsd	%xmm0, 24(%rax)
	vmovsd	32(%rdx), %xmm0
	vmovsd	%xmm0, 32(%rax)
	vmovsd	40(%rdx), %xmm0
	vmovsd	%xmm0, 40(%rax)
	vmovsd	(%rdx), %xmm0
	vmovsd	%xmm0, (%rax)
	vmovsd	8(%rdx), %xmm0
	vmovsd	%xmm0, 8(%rax)
	vmovsd	16(%rdx), %xmm0
	vmovsd	%xmm0, 16(%rax)
	vzeroupper
.L726:
	leaq	-16(%rbp), %rsp
	popq	%rbx
	popq	%r12
	popq	%rbp
	.cfi_remember_state
	.cfi_def_cfa 7, 8
	ret
	.p2align 4,,10
	.p2align 3
.L709:
	.cfi_restore_state
	addl	$1, %eax
	xorl	%edx, %edx
	jmp	.L716
	.p2align 4,,10
	.p2align 3
.L711:
	subl	$1, %eax
	addq	%rax, %r10
	leaq	(%r10,%r10,2), %rax
	salq	$4, %rax
	leaq	48(%rdi,%rax), %rax
	.p2align 4,,10
	.p2align 3
.L714:
	vmovsd	24(%rcx), %xmm0
	addq	$48, %rcx
	addq	$48, %rsi
	vmovsd	%xmm0, -24(%rsi)
	vmovsd	-16(%rcx), %xmm0
	vmovsd	%xmm0, -16(%rsi)
	vmovsd	-8(%rcx), %xmm0
	vmovsd	%xmm0, -8(%rsi)
	vmovsd	-48(%rcx), %xmm0
	vmovsd	%xmm0, -48(%rsi)
	vmovsd	-40(%rcx), %xmm0
	vmovsd	%xmm0, -40(%rsi)
	vmovsd	-32(%rcx), %xmm0
	vmovsd	%xmm0, -32(%rsi)
	cmpq	%rax, %rcx
	jne	.L714
	jmp	.L726
	.p2align 4,,10
	.p2align 3
.L725:
	vzeroupper
	leaq	-16(%rbp), %rsp
	popq	%rbx
	popq	%r12
	popq	%rbp
	.cfi_def_cfa 7, 8
	ret
	.cfi_endproc
.LFE15872:
	.size	_ZN17ParticleSimulator18ReallocatableArrayINS_10Orthotope3IdEEE12ReallocInnerEi._omp_fn.0, .-_ZN17ParticleSimulator18ReallocatableArrayINS_10Orthotope3IdEEE12ReallocInnerEi._omp_fn.0
	.section	.text._ZN17ParticleSimulator18ReallocatableArrayINS_10Orthotope3IdEEE12ReallocInnerEi._omp_fn.1,"axG",@progbits,_ZN17ParticleSimulator9CommTable21setPosDomainAllgatherERKNS_10DomainInfoERKNS_10Orthotope3IdEE,comdat
	.p2align 4
	.type	_ZN17ParticleSimulator18ReallocatableArrayINS_10Orthotope3IdEEE12ReallocInnerEi._omp_fn.1, @function
_ZN17ParticleSimulator18ReallocatableArrayINS_10Orthotope3IdEEE12ReallocInnerEi._omp_fn.1:
.LFB15873:
	.cfi_startproc
	endbr64
	pushq	%r12
	.cfi_def_cfa_offset 16
	.cfi_offset 12, -16
	pushq	%rbp
	.cfi_def_cfa_offset 24
	.cfi_offset 6, -24
	pushq	%rbx
	.cfi_def_cfa_offset 32
	.cfi_offset 3, -32
	movq	(%rdi), %r12
	movq	8(%rdi), %rbp
	call	omp_get_thread_num@PLT
	movl	%eax, %ebx
	call	omp_get_num_threads@PLT
	movl	%ebx, %ecx
	movl	%eax, %r8d
	movl	12(%r12), %eax
	cltd
	idivl	%r8d
	movl	%eax, %r8d
	imull	%ebx, %r8d
	cmpl	%ebx, %edx
	cmovle	%edx, %ecx
	addl	$1, %ebx
	addl	%r8d, %ecx
	movslq	%ecx, %rsi
	leaq	(%rsi,%rsi,2), %rsi
	salq	$4, %rsi
	cmpl	%edx, %ebx
	cmovg	%edx, %ebx
	addl	%r8d, %eax
	leaq	0(%rbp,%rsi), %rdi
	addq	(%r12), %rsi
	addl	%eax, %ebx
	subl	%ecx, %ebx
	movslq	%ebx, %rbx
	leaq	(%rbx,%rbx,2), %rdx
	popq	%rbx
	.cfi_def_cfa_offset 24
	popq	%rbp
	.cfi_def_cfa_offset 16
	salq	$4, %rdx
	popq	%r12
	.cfi_def_cfa_offset 8
	jmp	memcpy@PLT
	.cfi_endproc
.LFE15873:
	.size	_ZN17ParticleSimulator18ReallocatableArrayINS_10Orthotope3IdEEE12ReallocInnerEi._omp_fn.1, .-_ZN17ParticleSimulator18ReallocatableArrayINS_10Orthotope3IdEEE12ReallocInnerEi._omp_fn.1
	.section	.text._ZN17ParticleSimulator18ReallocatableArrayINS_10Orthotope3IdEEE12ReallocInnerEi._omp_fn.2,"axG",@progbits,_ZN17ParticleSimulator9CommTable21setPosDomainAllgatherERKNS_10DomainInfoERKNS_10Orthotope3IdEE,comdat
	.p2align 4
	.type	_ZN17ParticleSimulator18ReallocatableArrayINS_10Orthotope3IdEEE12ReallocInnerEi._omp_fn.2, @function
_ZN17ParticleSimulator18ReallocatableArrayINS_10Orthotope3IdEEE12ReallocInnerEi._omp_fn.2:
.LFB15874:
	.cfi_startproc
	endbr64
	pushq	%r12
	.cfi_def_cfa_offset 16
	.cfi_offset 12, -16
	pushq	%rbp
	.cfi_def_cfa_offset 24
	.cfi_offset 6, -24
	pushq	%rbx
	.cfi_def_cfa_offset 32
	.cfi_offset 3, -32
	movq	8(%rdi), %rbp
	movq	(%rdi), %r12
	call	omp_get_thread_num@PLT
	movl	%eax, %ebx
	call	omp_get_num_threads@PLT
	movl	%ebx, %ecx
	movq	(%r12), %rdi
	movl	%eax, %r8d
	movl	8(%r12), %eax
	cltd
	idivl	%r8d
	movl	%eax, %r8d
	imull	%ebx, %r8d
	cmpl	%ebx, %edx
	cmovle	%edx, %ecx
	addl	$1, %ebx
	addl	%r8d, %ecx
	movslq	%ecx, %rsi
	leaq	(%rsi,%rsi,2), %rsi
	salq	$4, %rsi
	addq	%rsi, %rdi
	cmpl	%edx, %ebx
	cmovg	%edx, %ebx
	addl	%r8d, %eax
	addq	%rbp, %rsi
	addl	%eax, %ebx
	subl	%ecx, %ebx
	movslq	%ebx, %rbx
	leaq	(%rbx,%rbx,2), %rdx
	popq	%rbx
	.cfi_def_cfa_offset 24
	popq	%rbp
	.cfi_def_cfa_offset 16
	salq	$4, %rdx
	popq	%r12
	.cfi_def_cfa_offset 8
	jmp	memcpy@PLT
	.cfi_endproc
.LFE15874:
	.size	_ZN17ParticleSimulator18ReallocatableArrayINS_10Orthotope3IdEEE12ReallocInnerEi._omp_fn.2, .-_ZN17ParticleSimulator18ReallocatableArrayINS_10Orthotope3IdEEE12ReallocInnerEi._omp_fn.2
	.section	.text._ZN17ParticleSimulator12TreeForForceINS_24SEARCH_MODE_LONG_SCATTERE7Force_t5EPI_tS3_16MyMomentMonopoleS4_13MySPJMonopoleLNS_18CALC_DISTANCE_TYPEE1EE24mortonSortGlobalTreeOnlyEb._omp_fn.0,"axG",@progbits,_ZN17ParticleSimulator12TreeForForceINS_24SEARCH_MODE_LONG_SCATTERE7Force_t5EPI_tS3_16MyMomentMonopoleS4_13MySPJMonopoleLNS_18CALC_DISTANCE_TYPEE1EE24mortonSortGlobalTreeOnlyEb,comdat
	.p2align 4
	.type	_ZN17ParticleSimulator12TreeForForceINS_24SEARCH_MODE_LONG_SCATTERE7Force_t5EPI_tS3_16MyMomentMonopoleS4_13MySPJMonopoleLNS_18CALC_DISTANCE_TYPEE1EE24mortonSortGlobalTreeOnlyEb._omp_fn.0, @function
_ZN17ParticleSimulator12TreeForForceINS_24SEARCH_MODE_LONG_SCATTERE7Force_t5EPI_tS3_16MyMomentMonopoleS4_13MySPJMonopoleLNS_18CALC_DISTANCE_TYPEE1EE24mortonSortGlobalTreeOnlyEb._omp_fn.0:
.LFB15876:
	.cfi_startproc
	endbr64
	pushq	%rbp
	.cfi_def_cfa_offset 16
	.cfi_offset 6, -16
	pushq	%rbx
	.cfi_def_cfa_offset 24
	.cfi_offset 3, -24
	movq	%rdi, %rbx
	subq	$8, %rsp
	.cfi_def_cfa_offset 32
	call	omp_get_num_threads@PLT
	movl	%eax, %ebp
	call	omp_get_thread_num@PLT
	movl	%eax, %ecx
	movl	16(%rbx), %eax
	cltd
	idivl	%ebp
	cmpl	%edx, %ecx
	jl	.L733
.L737:
	imull	%eax, %ecx
	addl	%ecx, %edx
	leal	(%rax,%rdx), %ecx
	cmpl	%ecx, %edx
	jge	.L739
	movq	(%rbx), %rcx
	subl	$1, %eax
	movslq	%edx, %rdx
	leaq	3(%rax,%rax,2), %r8
	movslq	816(%rcx), %rax
	salq	$3, %r8
	addq	%rdx, %rax
	leaq	(%rdx,%rdx,2), %rdx
	leaq	(%rax,%rax,2), %rsi
	movq	856(%rcx), %rax
	leaq	(%rax,%rsi,8), %rcx
	movq	8(%rbx), %rax
	movq	(%rax), %rax
	leaq	(%rax,%rdx,8), %rdx
	xorl	%eax, %eax
	.p2align 4,,10
	.p2align 3
.L735:
	vmovdqu	(%rcx,%rax), %xmm0
	vmovups	%xmm0, (%rdx,%rax)
	movl	16(%rcx,%rax), %esi
	movl	%esi, 16(%rdx,%rax)
	addq	$24, %rax
	cmpq	%rax, %r8
	jne	.L735
.L739:
	addq	$8, %rsp
	.cfi_remember_state
	.cfi_def_cfa_offset 24
	popq	%rbx
	.cfi_def_cfa_offset 16
	popq	%rbp
	.cfi_def_cfa_offset 8
	ret
	.p2align 4,,10
	.p2align 3
.L733:
	.cfi_restore_state
	addl	$1, %eax
	xorl	%edx, %edx
	jmp	.L737
	.cfi_endproc
.LFE15876:
	.size	_ZN17ParticleSimulator12TreeForForceINS_24SEARCH_MODE_LONG_SCATTERE7Force_t5EPI_tS3_16MyMomentMonopoleS4_13MySPJMonopoleLNS_18CALC_DISTANCE_TYPEE1EE24mortonSortGlobalTreeOnlyEb._omp_fn.0, .-_ZN17ParticleSimulator12TreeForForceINS_24SEARCH_MODE_LONG_SCATTERE7Force_t5EPI_tS3_16MyMomentMonopoleS4_13MySPJMonopoleLNS_18CALC_DISTANCE_TYPEE1EE24mortonSortGlobalTreeOnlyEb._omp_fn.0
	.section	.text._ZN17ParticleSimulator12TreeForForceINS_24SEARCH_MODE_LONG_SCATTERE7Force_t5EPI_tS3_16MyMomentMonopoleS4_13MySPJMonopoleLNS_18CALC_DISTANCE_TYPEE1EE24mortonSortGlobalTreeOnlyEb._omp_fn.1,"axG",@progbits,_ZN17ParticleSimulator12TreeForForceINS_24SEARCH_MODE_LONG_SCATTERE7Force_t5EPI_tS3_16MyMomentMonopoleS4_13MySPJMonopoleLNS_18CALC_DISTANCE_TYPEE1EE24mortonSortGlobalTreeOnlyEb,comdat
	.p2align 4
	.type	_ZN17ParticleSimulator12TreeForForceINS_24SEARCH_MODE_LONG_SCATTERE7Force_t5EPI_tS3_16MyMomentMonopoleS4_13MySPJMonopoleLNS_18CALC_DISTANCE_TYPEE1EE24mortonSortGlobalTreeOnlyEb._omp_fn.1, @function
_ZN17ParticleSimulator12TreeForForceINS_24SEARCH_MODE_LONG_SCATTERE7Force_t5EPI_tS3_16MyMomentMonopoleS4_13MySPJMonopoleLNS_18CALC_DISTANCE_TYPEE1EE24mortonSortGlobalTreeOnlyEb._omp_fn.1:
.LFB15877:
	.cfi_startproc
	endbr64
	pushq	%r12
	.cfi_def_cfa_offset 16
	.cfi_offset 12, -16
	movq	(%rdi), %r12
	pushq	%rbp
	.cfi_def_cfa_offset 24
	.cfi_offset 6, -24
	movq	%rdi, %rbp
	pushq	%rbx
	.cfi_def_cfa_offset 32
	.cfi_offset 3, -32
	call	omp_get_num_threads@PLT
	movl	%eax, %ebx
	call	omp_get_thread_num@PLT
	movl	%eax, %ecx
	movl	816(%r12), %eax
	cltd
	idivl	%ebx
	cmpl	%edx, %ecx
	jl	.L742
.L746:
	imull	%eax, %ecx
	addl	%ecx, %edx
	leal	(%rax,%rdx), %ecx
	cmpl	%ecx, %edx
	jge	.L748
	movslq	%edx, %rdx
	movq	8(%rbp), %rcx
	subl	$1, %eax
	movq	856(%r12), %r8
	leaq	1(%rdx,%rax), %rax
	movq	(%rcx), %rsi
	leaq	(%rdx,%rdx,2), %rcx
	leaq	(%rax,%rax,2), %rdx
	salq	$3, %rcx
	salq	$3, %rdx
	.p2align 4,,10
	.p2align 3
.L744:
	vmovdqu	(%r8,%rcx), %xmm0
	vmovups	%xmm0, (%rsi,%rcx)
	movl	16(%r8,%rcx), %eax
	movl	%eax, 16(%rsi,%rcx)
	addq	$24, %rcx
	cmpq	%rcx, %rdx
	jne	.L744
.L748:
	popq	%rbx
	.cfi_remember_state
	.cfi_def_cfa_offset 24
	popq	%rbp
	.cfi_def_cfa_offset 16
	popq	%r12
	.cfi_def_cfa_offset 8
	ret
	.p2align 4,,10
	.p2align 3
.L742:
	.cfi_restore_state
	addl	$1, %eax
	xorl	%edx, %edx
	jmp	.L746
	.cfi_endproc
.LFE15877:
	.size	_ZN17ParticleSimulator12TreeForForceINS_24SEARCH_MODE_LONG_SCATTERE7Force_t5EPI_tS3_16MyMomentMonopoleS4_13MySPJMonopoleLNS_18CALC_DISTANCE_TYPEE1EE24mortonSortGlobalTreeOnlyEb._omp_fn.1, .-_ZN17ParticleSimulator12TreeForForceINS_24SEARCH_MODE_LONG_SCATTERE7Force_t5EPI_tS3_16MyMomentMonopoleS4_13MySPJMonopoleLNS_18CALC_DISTANCE_TYPEE1EE24mortonSortGlobalTreeOnlyEb._omp_fn.1
	.section	.text._ZN17ParticleSimulator12TreeForForceINS_24SEARCH_MODE_LONG_SCATTERE7Force_t5EPI_tS3_16MyMomentMonopoleS4_13MySPJMonopoleLNS_18CALC_DISTANCE_TYPEE1EE24mortonSortGlobalTreeOnlyEb._omp_fn.2,"axG",@progbits,_ZN17ParticleSimulator12TreeForForceINS_24SEARCH_MODE_LONG_SCATTERE7Force_t5EPI_tS3_16MyMomentMonopoleS4_13MySPJMonopoleLNS_18CALC_DISTANCE_TYPEE1EE24mortonSortGlobalTreeOnlyEb,comdat
	.p2align 4
	.type	_ZN17ParticleSimulator12TreeForForceINS_24SEARCH_MODE_LONG_SCATTERE7Force_t5EPI_tS3_16MyMomentMonopoleS4_13MySPJMonopoleLNS_18CALC_DISTANCE_TYPEE1EE24mortonSortGlobalTreeOnlyEb._omp_fn.2, @function
_ZN17ParticleSimulator12TreeForForceINS_24SEARCH_MODE_LONG_SCATTERE7Force_t5EPI_tS3_16MyMomentMonopoleS4_13MySPJMonopoleLNS_18CALC_DISTANCE_TYPEE1EE24mortonSortGlobalTreeOnlyEb._omp_fn.2:
.LFB15878:
	.cfi_startproc
	endbr64
	pushq	%rbp
	.cfi_def_cfa_offset 16
	.cfi_offset 6, -16
	movq	%rsp, %rbp
	.cfi_def_cfa_register 6
	pushq	%r12
	pushq	%rbx
	.cfi_offset 12, -24
	.cfi_offset 3, -32
	movq	(%rdi), %r12
	andq	$-32, %rsp
	call	omp_get_num_threads@PLT
	movl	%eax, %ebx
	call	omp_get_thread_num@PLT
	movl	%eax, %ecx
	movq	832(%r12), %rax
	cltd
	idivl	%ebx
	cmpl	%edx, %ecx
	jl	.L751
.L758:
	imull	%eax, %ecx
	addl	%ecx, %edx
	leal	(%rax,%rdx), %r9d
	cmpl	%r9d, %edx
	jge	.L774
	movslq	%edx, %r11
	movl	%eax, %edi
	movq	856(%r12), %r10
	leal	-1(%rax), %ebx
	movq	1144(%r12), %r8
	addq	%r11, %rdi
	leaq	(%r11,%r11,2), %rcx
	leaq	(%rdi,%rdi,2), %r12
	leaq	16(%r10,%rcx,8), %rcx
	leaq	-4(%r10,%r12,8), %r12
	leaq	(%r8,%r11,4), %rsi
	cmpq	%r12, %rsi
	leaq	(%r8,%rdi,4), %rdi
	setnb	%r12b
	cmpq	%rdi, %rcx
	setnb	%dil
	orb	%dil, %r12b
	je	.L753
	cmpl	$14, %ebx
	jbe	.L753
	movl	%eax, %edi
	shrl	$3, %edi
	salq	$5, %rdi
	addq	%rsi, %rdi
	.p2align 4,,10
	.p2align 3
.L754:
	vmovd	144(%rcx), %xmm4
	vmovd	96(%rcx), %xmm5
	addq	$32, %rsi
	addq	$192, %rcx
	vpinsrd	$1, -24(%rcx), %xmm4, %xmm2
	vpinsrd	$1, -72(%rcx), %xmm5, %xmm1
	vmovd	-144(%rcx), %xmm6
	vmovd	-192(%rcx), %xmm7
	vpinsrd	$1, -120(%rcx), %xmm6, %xmm3
	vpunpcklqdq	%xmm2, %xmm1, %xmm1
	vpinsrd	$1, -168(%rcx), %xmm7, %xmm0
	vpunpcklqdq	%xmm3, %xmm0, %xmm0
	vinserti128	$0x1, %xmm1, %ymm0, %ymm0
	vmovups	%xmm0, -32(%rsi)
	vextracti128	$0x1, %ymm0, -16(%rsi)
	cmpq	%rdi, %rsi
	jne	.L754
	movl	%eax, %ecx
	andl	$-8, %ecx
	addl	%ecx, %edx
	cmpl	%ecx, %eax
	je	.L773
	movslq	%edx, %rcx
	leaq	(%rcx,%rcx,2), %rax
	salq	$3, %rax
	movl	16(%r10,%rax), %esi
	movl	%esi, (%r8,%rcx,4)
	leal	1(%rdx), %ecx
	cmpl	%ecx, %r9d
	jle	.L773
	movl	40(%r10,%rax), %esi
	movslq	%ecx, %rcx
	movl	%esi, (%r8,%rcx,4)
	leal	2(%rdx), %ecx
	cmpl	%ecx, %r9d
	jle	.L773
	movl	64(%r10,%rax), %esi
	movslq	%ecx, %rcx
	movl	%esi, (%r8,%rcx,4)
	leal	3(%rdx), %ecx
	cmpl	%ecx, %r9d
	jle	.L773
	movl	88(%r10,%rax), %esi
	movslq	%ecx, %rcx
	movl	%esi, (%r8,%rcx,4)
	leal	4(%rdx), %ecx
	cmpl	%ecx, %r9d
	jle	.L773
	movl	112(%r10,%rax), %esi
	movslq	%ecx, %rcx
	movl	%esi, (%r8,%rcx,4)
	leal	5(%rdx), %ecx
	cmpl	%ecx, %r9d
	jle	.L773
	movl	136(%r10,%rax), %esi
	movslq	%ecx, %rcx
	addl	$6, %edx
	movl	%esi, (%r8,%rcx,4)
	cmpl	%edx, %r9d
	jle	.L773
	movl	160(%r10,%rax), %eax
	movslq	%edx, %rdx
	movl	%eax, (%r8,%rdx,4)
	vzeroupper
.L774:
	leaq	-16(%rbp), %rsp
	popq	%rbx
	popq	%r12
	popq	%rbp
	.cfi_remember_state
	.cfi_def_cfa 7, 8
	ret
	.p2align 4,,10
	.p2align 3
.L773:
	.cfi_restore_state
	vzeroupper
	leaq	-16(%rbp), %rsp
	popq	%rbx
	popq	%r12
	popq	%rbp
	.cfi_remember_state
	.cfi_def_cfa 7, 8
	ret
	.p2align 4,,10
	.p2align 3
.L751:
	.cfi_restore_state
	addl	$1, %eax
	xorl	%edx, %edx
	jmp	.L758
	.p2align 4,,10
	.p2align 3
.L753:
	addq	%rbx, %r11
	leaq	4(%r8,%r11,4), %rdx
	.p2align 4,,10
	.p2align 3
.L756:
	movl	(%rcx), %eax
	addq	$4, %rsi
	addq	$24, %rcx
	movl	%eax, -4(%rsi)
	cmpq	%rdx, %rsi
	jne	.L756
	jmp	.L774
	.cfi_endproc
.LFE15878:
	.size	_ZN17ParticleSimulator12TreeForForceINS_24SEARCH_MODE_LONG_SCATTERE7Force_t5EPI_tS3_16MyMomentMonopoleS4_13MySPJMonopoleLNS_18CALC_DISTANCE_TYPEE1EE24mortonSortGlobalTreeOnlyEb._omp_fn.2, .-_ZN17ParticleSimulator12TreeForForceINS_24SEARCH_MODE_LONG_SCATTERE7Force_t5EPI_tS3_16MyMomentMonopoleS4_13MySPJMonopoleLNS_18CALC_DISTANCE_TYPEE1EE24mortonSortGlobalTreeOnlyEb._omp_fn.2
	.section	.text._ZN17ParticleSimulator18ReallocatableArrayIjE12ReallocInnerEi._omp_fn.0,"axG",@progbits,_ZN17ParticleSimulator12TreeForForceINS_24SEARCH_MODE_LONG_SCATTERE7Force_t5EPI_tS3_16MyMomentMonopoleS4_13MySPJMonopoleLNS_18CALC_DISTANCE_TYPEE1EE24mortonSortGlobalTreeOnlyEb,comdat
	.p2align 4
	.type	_ZN17ParticleSimulator18ReallocatableArrayIjE12ReallocInnerEi._omp_fn.0, @function
_ZN17ParticleSimulator18ReallocatableArrayIjE12ReallocInnerEi._omp_fn.0:
.LFB15880:
	.cfi_startproc
	endbr64
	pushq	%rbp
	.cfi_def_cfa_offset 16
	.cfi_offset 6, -16
	movq	%rsp, %rbp
	.cfi_def_cfa_register 6
	pushq	%r12
	.cfi_offset 12, -24
	movq	%rdi, %r12
	pushq	%rbx
	andq	$-32, %rsp
	.cfi_offset 3, -32
	call	omp_get_num_threads@PLT
	movl	%eax, %ebx
	call	omp_get_thread_num@PLT
	movl	%eax, %ecx
	movq	(%r12), %rax
	movl	8(%rax), %eax
	cltd
	idivl	%ebx
	cmpl	%edx, %ecx
	jl	.L777
.L783:
	imull	%eax, %ecx
	addl	%ecx, %edx
	leal	(%rax,%rdx), %r9d
	cmpl	%r9d, %edx
	jge	.L798
	movq	16(%r12), %r10
	movq	8(%r12), %r11
	movslq	%edx, %rcx
	leaq	32(,%rcx,4), %r8
	leaq	0(,%rcx,4), %rsi
	leaq	(%r10,%r8), %rbx
	leaq	(%r11,%rsi), %rdi
	addq	%r10, %rsi
	cmpq	%rbx, %rdi
	setnb	%bl
	addq	%r11, %r8
	cmpq	%r8, %rsi
	setnb	%r8b
	orb	%r8b, %bl
	je	.L786
	leal	-1(%rax), %r8d
	cmpl	$6, %r8d
	jbe	.L786
	movl	%eax, %r8d
	xorl	%ecx, %ecx
	shrl	$3, %r8d
	salq	$5, %r8
	.p2align 4,,10
	.p2align 3
.L780:
	vmovdqu	(%rdi,%rcx), %xmm1
	vinserti128	$0x1, 16(%rdi,%rcx), %ymm1, %ymm0
	vmovups	%xmm0, (%rsi,%rcx)
	vextracti128	$0x1, %ymm0, 16(%rsi,%rcx)
	addq	$32, %rcx
	cmpq	%r8, %rcx
	jne	.L780
	movl	%eax, %ecx
	andl	$-8, %ecx
	addl	%ecx, %edx
	cmpl	%ecx, %eax
	je	.L797
	movslq	%edx, %rax
	movl	(%r11,%rax,4), %ecx
	movl	%ecx, (%r10,%rax,4)
	leal	1(%rdx), %ecx
	cmpl	%ecx, %r9d
	jle	.L797
	movslq	%ecx, %rcx
	movl	(%r11,%rcx,4), %eax
	movl	%eax, (%r10,%rcx,4)
	leal	2(%rdx), %ecx
	cmpl	%ecx, %r9d
	jle	.L797
	movslq	%ecx, %rcx
	movl	(%r11,%rcx,4), %eax
	movl	%eax, (%r10,%rcx,4)
	leal	3(%rdx), %ecx
	cmpl	%ecx, %r9d
	jle	.L797
	movslq	%ecx, %rcx
	movl	(%r11,%rcx,4), %eax
	movl	%eax, (%r10,%rcx,4)
	leal	4(%rdx), %eax
	cmpl	%eax, %r9d
	jle	.L797
	cltq
	movl	(%r11,%rax,4), %ecx
	movl	%ecx, (%r10,%rax,4)
	leal	5(%rdx), %eax
	cmpl	%eax, %r9d
	jle	.L797
	cltq
	addl	$6, %edx
	movl	(%r11,%rax,4), %ecx
	movl	%ecx, (%r10,%rax,4)
	cmpl	%edx, %r9d
	jle	.L797
	movslq	%edx, %rdx
	movl	(%r11,%rdx,4), %eax
	movl	%eax, (%r10,%rdx,4)
	vzeroupper
.L798:
	leaq	-16(%rbp), %rsp
	popq	%rbx
	popq	%r12
	popq	%rbp
	.cfi_remember_state
	.cfi_def_cfa 7, 8
	ret
	.p2align 4,,10
	.p2align 3
.L786:
	.cfi_restore_state
	movl	(%r11,%rcx,4), %eax
	movl	%eax, (%r10,%rcx,4)
	addq	$1, %rcx
	cmpl	%ecx, %r9d
	jg	.L786
	jmp	.L798
	.p2align 4,,10
	.p2align 3
.L797:
	vzeroupper
	leaq	-16(%rbp), %rsp
	popq	%rbx
	popq	%r12
	popq	%rbp
	.cfi_remember_state
	.cfi_def_cfa 7, 8
	ret
	.p2align 4,,10
	.p2align 3
.L777:
	.cfi_restore_state
	addl	$1, %eax
	xorl	%edx, %edx
	jmp	.L783
	.cfi_endproc
.LFE15880:
	.size	_ZN17ParticleSimulator18ReallocatableArrayIjE12ReallocInnerEi._omp_fn.0, .-_ZN17ParticleSimulator18ReallocatableArrayIjE12ReallocInnerEi._omp_fn.0
	.section	.text._ZN17ParticleSimulator18ReallocatableArrayIjE12ReallocInnerEi._omp_fn.1,"axG",@progbits,_ZN17ParticleSimulator12TreeForForceINS_24SEARCH_MODE_LONG_SCATTERE7Force_t5EPI_tS3_16MyMomentMonopoleS4_13MySPJMonopoleLNS_18CALC_DISTANCE_TYPEE1EE24mortonSortGlobalTreeOnlyEb,comdat
	.p2align 4
	.type	_ZN17ParticleSimulator18ReallocatableArrayIjE12ReallocInnerEi._omp_fn.1, @function
_ZN17ParticleSimulator18ReallocatableArrayIjE12ReallocInnerEi._omp_fn.1:
.LFB15881:
	.cfi_startproc
	endbr64
	pushq	%r12
	.cfi_def_cfa_offset 16
	.cfi_offset 12, -16
	pushq	%rbp
	.cfi_def_cfa_offset 24
	.cfi_offset 6, -24
	pushq	%rbx
	.cfi_def_cfa_offset 32
	.cfi_offset 3, -32
	movq	(%rdi), %r12
	movq	8(%rdi), %rbp
	call	omp_get_thread_num@PLT
	movl	%eax, %ebx
	call	omp_get_num_threads@PLT
	movl	%ebx, %ecx
	movl	%eax, %r8d
	movl	12(%r12), %eax
	cltd
	idivl	%r8d
	movl	%eax, %r8d
	imull	%ebx, %r8d
	cmpl	%ebx, %edx
	cmovle	%edx, %ecx
	addl	$1, %ebx
	addl	%r8d, %ecx
	movslq	%ecx, %rsi
	salq	$2, %rsi
	cmpl	%edx, %ebx
	cmovg	%edx, %ebx
	addl	%r8d, %eax
	leaq	0(%rbp,%rsi), %rdi
	addq	(%r12), %rsi
	leal	(%rbx,%rax), %edx
	popq	%rbx
	.cfi_def_cfa_offset 24
	popq	%rbp
	.cfi_def_cfa_offset 16
	subl	%ecx, %edx
	popq	%r12
	.cfi_def_cfa_offset 8
	movslq	%edx, %rdx
	salq	$2, %rdx
	jmp	memcpy@PLT
	.cfi_endproc
.LFE15881:
	.size	_ZN17ParticleSimulator18ReallocatableArrayIjE12ReallocInnerEi._omp_fn.1, .-_ZN17ParticleSimulator18ReallocatableArrayIjE12ReallocInnerEi._omp_fn.1
	.section	.text._ZN17ParticleSimulator18ReallocatableArrayIjE12ReallocInnerEi._omp_fn.2,"axG",@progbits,_ZN17ParticleSimulator12TreeForForceINS_24SEARCH_MODE_LONG_SCATTERE7Force_t5EPI_tS3_16MyMomentMonopoleS4_13MySPJMonopoleLNS_18CALC_DISTANCE_TYPEE1EE24mortonSortGlobalTreeOnlyEb,comdat
	.p2align 4
	.type	_ZN17ParticleSimulator18ReallocatableArrayIjE12ReallocInnerEi._omp_fn.2, @function
_ZN17ParticleSimulator18ReallocatableArrayIjE12ReallocInnerEi._omp_fn.2:
.LFB15882:
	.cfi_startproc
	endbr64
	pushq	%r12
	.cfi_def_cfa_offset 16
	.cfi_offset 12, -16
	pushq	%rbp
	.cfi_def_cfa_offset 24
	.cfi_offset 6, -24
	pushq	%rbx
	.cfi_def_cfa_offset 32
	.cfi_offset 3, -32
	movq	8(%rdi), %rbp
	movq	(%rdi), %r12
	call	omp_get_thread_num@PLT
	movl	%eax, %ebx
	call	omp_get_num_threads@PLT
	movl	%ebx, %ecx
	movq	(%r12), %rdi
	movl	%eax, %r8d
	movl	8(%r12), %eax
	cltd
	idivl	%r8d
	movl	%eax, %r8d
	imull	%ebx, %r8d
	cmpl	%ebx, %edx
	cmovle	%edx, %ecx
	addl	$1, %ebx
	addl	%r8d, %ecx
	movslq	%ecx, %rsi
	salq	$2, %rsi
	addq	%rsi, %rdi
	cmpl	%edx, %ebx
	cmovg	%edx, %ebx
	addl	%r8d, %eax
	addq	%rbp, %rsi
	leal	(%rbx,%rax), %edx
	popq	%rbx
	.cfi_def_cfa_offset 24
	popq	%rbp
	.cfi_def_cfa_offset 16
	subl	%ecx, %edx
	popq	%r12
	.cfi_def_cfa_offset 8
	movslq	%edx, %rdx
	salq	$2, %rdx
	jmp	memcpy@PLT
	.cfi_endproc
.LFE15882:
	.size	_ZN17ParticleSimulator18ReallocatableArrayIjE12ReallocInnerEi._omp_fn.2, .-_ZN17ParticleSimulator18ReallocatableArrayIjE12ReallocInnerEi._omp_fn.2
	.section	.text._ZN17ParticleSimulator12MergeSortOmpINS_12TreeParticleEZNS_12TreeForForceINS_24SEARCH_MODE_LONG_SCATTERE7Force_t5EPI_tS5_16MyMomentMonopoleS6_13MySPJMonopoleLNS_18CALC_DISTANCE_TYPEE1EE24mortonSortGlobalTreeOnlyEbEUlRKS1_SB_E_EEvRNS_18ReallocatableArrayIT_EEiiT0_._omp_fn.1,"axG",@progbits,_ZN17ParticleSimulator12MergeSortOmpINS_12TreeParticleEZNS_12TreeForForceINS_24SEARCH_MODE_LONG_SCATTERE7Force_t5EPI_tS5_16MyMomentMonopoleS6_13MySPJMonopoleLNS_18CALC_DISTANCE_TYPEE1EE24mortonSortGlobalTreeOnlyEbEUlRKS1_SB_E_EEvRNS_18ReallocatableArrayIT_EEiiT0_,comdat
	.p2align 4
	.type	_ZN17ParticleSimulator12MergeSortOmpINS_12TreeParticleEZNS_12TreeForForceINS_24SEARCH_MODE_LONG_SCATTERE7Force_t5EPI_tS5_16MyMomentMonopoleS6_13MySPJMonopoleLNS_18CALC_DISTANCE_TYPEE1EE24mortonSortGlobalTreeOnlyEbEUlRKS1_SB_E_EEvRNS_18ReallocatableArrayIT_EEiiT0_._omp_fn.1, @function
_ZN17ParticleSimulator12MergeSortOmpINS_12TreeParticleEZNS_12TreeForForceINS_24SEARCH_MODE_LONG_SCATTERE7Force_t5EPI_tS5_16MyMomentMonopoleS6_13MySPJMonopoleLNS_18CALC_DISTANCE_TYPEE1EE24mortonSortGlobalTreeOnlyEbEUlRKS1_SB_E_EEvRNS_18ReallocatableArrayIT_EEiiT0_._omp_fn.1:
.LFB15884:
	.cfi_startproc
	endbr64
	pushq	%r13
	.cfi_def_cfa_offset 16
	.cfi_offset 13, -16
	pushq	%r12
	.cfi_def_cfa_offset 24
	.cfi_offset 12, -24
	pushq	%rbp
	.cfi_def_cfa_offset 32
	.cfi_offset 6, -32
	pushq	%rbx
	.cfi_def_cfa_offset 40
	.cfi_offset 3, -40
	movq	%rdi, %rbx
	subq	$8, %rsp
	.cfi_def_cfa_offset 48
	movq	(%rdi), %rax
	movslq	32(%rdi), %r13
	movq	(%rax), %rax
	movl	(%rax,%r13,4), %r12d
	call	omp_get_num_threads@PLT
	movl	%eax, %ebp
	call	omp_get_thread_num@PLT
	movl	%eax, %esi
	movq	8(%rbx), %rax
	movq	(%rax), %rax
	movl	(%rax,%r13,4), %eax
	subl	%r12d, %eax
	cltd
	idivl	%ebp
	cmpl	%edx, %esi
	jl	.L805
.L809:
	imull	%eax, %esi
	addl	%esi, %edx
	addl	%edx, %eax
	cmpl	%eax, %edx
	jge	.L811
	movslq	36(%rbx), %rsi
	addl	%r12d, %edx
	leal	(%r12,%rax), %ecx
	movq	16(%rbx), %rax
	movslq	%edx, %rdi
	movq	24(%rbx), %r9
	movq	(%rax), %rax
	addq	%rdi, %rsi
	leaq	(%rsi,%rsi,2), %rsi
	leaq	(%rax,%rsi,8), %r8
	movslq	40(%rbx), %rax
	addq	%rdi, %rax
	leaq	(%rax,%rax,2), %rsi
	movq	(%r9), %rax
	leaq	(%rax,%rsi,8), %rsi
	xorl	%eax, %eax
	.p2align 4,,10
	.p2align 3
.L807:
	vmovdqu	(%r8,%rax), %xmm0
	addl	$1, %edx
	vmovups	%xmm0, (%rsi,%rax)
	movl	16(%r8,%rax), %edi
	movl	%edi, 16(%rsi,%rax)
	addq	$24, %rax
	cmpl	%edx, %ecx
	jg	.L807
.L811:
	addq	$8, %rsp
	.cfi_remember_state
	.cfi_def_cfa_offset 40
	popq	%rbx
	.cfi_def_cfa_offset 32
	popq	%rbp
	.cfi_def_cfa_offset 24
	popq	%r12
	.cfi_def_cfa_offset 16
	popq	%r13
	.cfi_def_cfa_offset 8
	ret
	.p2align 4,,10
	.p2align 3
.L805:
	.cfi_restore_state
	addl	$1, %eax
	xorl	%edx, %edx
	jmp	.L809
	.cfi_endproc
.LFE15884:
	.size	_ZN17ParticleSimulator12MergeSortOmpINS_12TreeParticleEZNS_12TreeForForceINS_24SEARCH_MODE_LONG_SCATTERE7Force_t5EPI_tS5_16MyMomentMonopoleS6_13MySPJMonopoleLNS_18CALC_DISTANCE_TYPEE1EE24mortonSortGlobalTreeOnlyEbEUlRKS1_SB_E_EEvRNS_18ReallocatableArrayIT_EEiiT0_._omp_fn.1, .-_ZN17ParticleSimulator12MergeSortOmpINS_12TreeParticleEZNS_12TreeForForceINS_24SEARCH_MODE_LONG_SCATTERE7Force_t5EPI_tS5_16MyMomentMonopoleS6_13MySPJMonopoleLNS_18CALC_DISTANCE_TYPEE1EE24mortonSortGlobalTreeOnlyEbEUlRKS1_SB_E_EEvRNS_18ReallocatableArrayIT_EEiiT0_._omp_fn.1
	.section	.text._ZN17ParticleSimulator12MergeSortOmpINS_12TreeParticleEZNS_12TreeForForceINS_24SEARCH_MODE_LONG_SCATTERE7Force_t5EPI_tS5_16MyMomentMonopoleS6_13MySPJMonopoleLNS_18CALC_DISTANCE_TYPEE1EE24mortonSortGlobalTreeOnlyEbEUlRKS1_SB_E_EEvRNS_18ReallocatableArrayIT_EEiiT0_._omp_fn.2,"axG",@progbits,_ZN17ParticleSimulator12MergeSortOmpINS_12TreeParticleEZNS_12TreeForForceINS_24SEARCH_MODE_LONG_SCATTERE7Force_t5EPI_tS5_16MyMomentMonopoleS6_13MySPJMonopoleLNS_18CALC_DISTANCE_TYPEE1EE24mortonSortGlobalTreeOnlyEbEUlRKS1_SB_E_EEvRNS_18ReallocatableArrayIT_EEiiT0_,comdat
	.p2align 4
	.type	_ZN17ParticleSimulator12MergeSortOmpINS_12TreeParticleEZNS_12TreeForForceINS_24SEARCH_MODE_LONG_SCATTERE7Force_t5EPI_tS5_16MyMomentMonopoleS6_13MySPJMonopoleLNS_18CALC_DISTANCE_TYPEE1EE24mortonSortGlobalTreeOnlyEbEUlRKS1_SB_E_EEvRNS_18ReallocatableArrayIT_EEiiT0_._omp_fn.2, @function
_ZN17ParticleSimulator12MergeSortOmpINS_12TreeParticleEZNS_12TreeForForceINS_24SEARCH_MODE_LONG_SCATTERE7Force_t5EPI_tS5_16MyMomentMonopoleS6_13MySPJMonopoleLNS_18CALC_DISTANCE_TYPEE1EE24mortonSortGlobalTreeOnlyEbEUlRKS1_SB_E_EEvRNS_18ReallocatableArrayIT_EEiiT0_._omp_fn.2:
.LFB15885:
	.cfi_startproc
	endbr64
	pushq	%rbp
	.cfi_def_cfa_offset 16
	.cfi_offset 6, -16
	pushq	%rbx
	.cfi_def_cfa_offset 24
	.cfi_offset 3, -24
	movq	%rdi, %rbx
	subq	$8, %rsp
	.cfi_def_cfa_offset 32
	call	omp_get_num_threads@PLT
	movl	%eax, %ebp
	call	omp_get_thread_num@PLT
	movl	%eax, %ecx
	movl	20(%rbx), %eax
	cltd
	idivl	%ebp
	cmpl	%edx, %ecx
	jl	.L814
.L818:
	imull	%eax, %ecx
	addl	%ecx, %edx
	leal	(%rax,%rdx), %ecx
	cmpl	%ecx, %edx
	jge	.L820
	subl	$1, %eax
	movslq	%edx, %rdx
	movq	(%rbx), %rsi
	leaq	3(%rax,%rax,2), %r8
	movq	8(%rbx), %rax
	leaq	(%rdx,%rdx,2), %rcx
	salq	$3, %r8
	movq	(%rax), %rax
	leaq	(%rax,%rcx,8), %rcx
	movslq	16(%rbx), %rax
	addq	%rax, %rdx
	movq	(%rsi), %rax
	leaq	(%rdx,%rdx,2), %rdx
	leaq	(%rax,%rdx,8), %rdx
	xorl	%eax, %eax
	.p2align 4,,10
	.p2align 3
.L816:
	vmovdqu	(%rcx,%rax), %xmm0
	vmovups	%xmm0, (%rdx,%rax)
	movl	16(%rcx,%rax), %esi
	movl	%esi, 16(%rdx,%rax)
	addq	$24, %rax
	cmpq	%rax, %r8
	jne	.L816
.L820:
	addq	$8, %rsp
	.cfi_remember_state
	.cfi_def_cfa_offset 24
	popq	%rbx
	.cfi_def_cfa_offset 16
	popq	%rbp
	.cfi_def_cfa_offset 8
	ret
	.p2align 4,,10
	.p2align 3
.L814:
	.cfi_restore_state
	addl	$1, %eax
	xorl	%edx, %edx
	jmp	.L818
	.cfi_endproc
.LFE15885:
	.size	_ZN17ParticleSimulator12MergeSortOmpINS_12TreeParticleEZNS_12TreeForForceINS_24SEARCH_MODE_LONG_SCATTERE7Force_t5EPI_tS5_16MyMomentMonopoleS6_13MySPJMonopoleLNS_18CALC_DISTANCE_TYPEE1EE24mortonSortGlobalTreeOnlyEbEUlRKS1_SB_E_EEvRNS_18ReallocatableArrayIT_EEiiT0_._omp_fn.2, .-_ZN17ParticleSimulator12MergeSortOmpINS_12TreeParticleEZNS_12TreeForForceINS_24SEARCH_MODE_LONG_SCATTERE7Force_t5EPI_tS5_16MyMomentMonopoleS6_13MySPJMonopoleLNS_18CALC_DISTANCE_TYPEE1EE24mortonSortGlobalTreeOnlyEbEUlRKS1_SB_E_EEvRNS_18ReallocatableArrayIT_EEiiT0_._omp_fn.2
	.section	.rodata._ZN17ParticleSimulator16MergeSortOmpImplINS_12TreeParticleEZNS_12TreeForForceINS_24SEARCH_MODE_LONG_SCATTERE7Force_t5EPI_tS5_16MyMomentMonopoleS6_13MySPJMonopoleLNS_18CALC_DISTANCE_TYPEE1EE24mortonSortGlobalTreeOnlyEbEUlRKS1_SB_E_EEvPT_SE_SE_SE_SE_T0_._omp_fn.0.str1.8,"aMS",@progbits,1
	.align 8
.LC6:
	.ascii	"void ParticleSimulator::FindSeparator(int&, int&, const T*, "
	.ascii	"const T*, int, int, int, Tpred) [with T = ParticleSimulator:"
	.ascii	":TreeParticle; Tpred = ParticleSimulator::TreeForForce<TSM, "
	.ascii	"Tforce, Tepi, Tepj, Tmomloc, Tmomglb, Tspj, CALC_DISTANCE_TY"
	.ascii	"PE>::mortonSortGlobalTreeOnly(bool) [with TSM = ParticleSimu"
	.ascii	"lator::SEARCH_MODE_LONG_SCATTER; Tforce = Force_t; Tepi = EP"
	.ascii	"I_t; Tepj = EPI_t; Tmomloc = MyMomentMo"
	.string	"nopole; Tmomglb = MyMomentMonopole; Tspj = MySPJMonopole; ParticleSimulator::CALC_DISTANCE_TYPE CALC_DISTANCE_TYPE = ParticleSimulator::CALC_DISTANCE_TYPE_NEAREST_X]::<lambda(const ParticleSimulator::TreeParticle&, const ParticleSimulator::TreeParticle&)>]"
	.section	.text._ZN17ParticleSimulator16MergeSortOmpImplINS_12TreeParticleEZNS_12TreeForForceINS_24SEARCH_MODE_LONG_SCATTERE7Force_t5EPI_tS5_16MyMomentMonopoleS6_13MySPJMonopoleLNS_18CALC_DISTANCE_TYPEE1EE24mortonSortGlobalTreeOnlyEbEUlRKS1_SB_E_EEvPT_SE_SE_SE_SE_T0_._omp_fn.0,"axG",@progbits,_ZN17ParticleSimulator12MergeSortOmpINS_12TreeParticleEZNS_12TreeForForceINS_24SEARCH_MODE_LONG_SCATTERE7Force_t5EPI_tS5_16MyMomentMonopoleS6_13MySPJMonopoleLNS_18CALC_DISTANCE_TYPEE1EE24mortonSortGlobalTreeOnlyEbEUlRKS1_SB_E_EEvRNS_18ReallocatableArrayIT_EEiiT0_,comdat
	.p2align 4
	.type	_ZN17ParticleSimulator16MergeSortOmpImplINS_12TreeParticleEZNS_12TreeForForceINS_24SEARCH_MODE_LONG_SCATTERE7Force_t5EPI_tS5_16MyMomentMonopoleS6_13MySPJMonopoleLNS_18CALC_DISTANCE_TYPEE1EE24mortonSortGlobalTreeOnlyEbEUlRKS1_SB_E_EEvPT_SE_SE_SE_SE_T0_._omp_fn.0, @function
_ZN17ParticleSimulator16MergeSortOmpImplINS_12TreeParticleEZNS_12TreeForForceINS_24SEARCH_MODE_LONG_SCATTERE7Force_t5EPI_tS5_16MyMomentMonopoleS6_13MySPJMonopoleLNS_18CALC_DISTANCE_TYPEE1EE24mortonSortGlobalTreeOnlyEbEUlRKS1_SB_E_EEvPT_SE_SE_SE_SE_T0_._omp_fn.0:
.LFB15886:
	.cfi_startproc
	endbr64
	pushq	%r15
	.cfi_def_cfa_offset 16
	.cfi_offset 15, -16
	pushq	%r14
	.cfi_def_cfa_offset 24
	.cfi_offset 14, -24
	pushq	%r13
	.cfi_def_cfa_offset 32
	.cfi_offset 13, -32
	pushq	%r12
	.cfi_def_cfa_offset 40
	.cfi_offset 12, -40
	pushq	%rbp
	.cfi_def_cfa_offset 48
	.cfi_offset 6, -48
	pushq	%rbx
	.cfi_def_cfa_offset 56
	.cfi_offset 3, -56
	movq	%rdi, %rbx
	subq	$56, %rsp
	.cfi_def_cfa_offset 112
	movq	(%rdi), %rax
	movslq	60(%rdi), %rbp
	movslq	56(%rdi), %r12
	movq	16(%rdi), %r13
	movq	8(%rdi), %r14
	movq	%rax, (%rsp)
	call	omp_get_thread_num@PLT
	movl	%eax, %r15d
	movl	64(%rbx), %eax
	leal	-1(%rax), %ecx
	movslq	%r15d, %rax
	leaq	0(,%rax,4), %rdi
	movl	%ecx, 12(%rsp)
	movq	%rdi, 24(%rsp)
	cmpl	%ecx, %r15d
	jl	.L823
.L842:
	movq	%rax, 16(%rsp)
	call	GOMP_barrier@PLT
	testl	%r15d, %r15d
	movq	16(%rsp), %rax
	je	.L862
	movq	48(%rbx), %rdx
	movq	24(%rsp), %rsi
	movq	(%rdx), %rdx
	movslq	-4(%rdx,%rsi), %rdx
	leaq	(%rdx,%rdx,2), %rdx
	leaq	0(%r13,%rdx,8), %r8
	movq	40(%rbx), %rdx
	movq	(%rdx), %rdx
	movslq	-4(%rdx,%rsi), %rdx
	leaq	(%rdx,%rdx,2), %rdx
	leaq	(%r14,%rdx,8), %rsi
.L835:
	cmpl	12(%rsp), %r15d
	je	.L834
	movq	40(%rbx), %rdx
	movq	(%rdx), %rdx
	movslq	(%rdx,%rax,4), %r12
	movq	48(%rbx), %rdx
	movq	(%rdx), %rdx
	movslq	(%rdx,%rax,4), %rbp
.L834:
	movq	24(%rbx), %rdx
	movq	(%rsp), %rcx
	movq	(%rdx), %rdx
	movslq	(%rdx,%rax,4), %rax
	leaq	(%rax,%rax,2), %rax
	leaq	(%rcx,%rax,8), %rdi
	leaq	0(%rbp,%rbp,2), %rax
	leaq	0(%r13,%rax,8), %rbx
	leaq	(%r12,%r12,2), %rax
	leaq	(%r14,%rax,8), %rax
	cmpq	%rsi, %rax
	jne	.L861
	jmp	.L826
	.p2align 4,,10
	.p2align 3
.L863:
	movq	8(%r8), %r9
	cmpq	%r9, 8(%rsi)
	jbe	.L846
	cmpq	%rdx, %rcx
	je	.L827
.L846:
	vmovdqu	(%rsi), %xmm0
	addq	$24, %rsi
	addq	$24, %rdi
	vmovups	%xmm0, -24(%rdi)
	movl	-8(%rsi), %edx
	movl	%edx, -8(%rdi)
	cmpq	%rsi, %rax
	je	.L826
.L861:
	cmpq	%r8, %rbx
	je	.L826
	movq	(%rsi), %rcx
	movq	(%r8), %rdx
	cmpq	%rdx, %rcx
	jbe	.L863
.L827:
	vmovdqu	(%r8), %xmm1
	addq	$24, %rdi
	addq	$24, %r8
	vmovups	%xmm1, -24(%rdi)
	movl	-8(%r8), %edx
	movl	%edx, -8(%rdi)
	cmpq	%rsi, %rax
	jne	.L861
.L826:
	movq	%rax, %rbp
	subq	%rsi, %rbp
	cmpq	%rsi, %rax
	je	.L832
	movq	%rbp, %rdx
	movq	%r8, (%rsp)
	call	memmove@PLT
	movq	(%rsp), %r8
	movq	%rax, %rdi
.L832:
	cmpq	%r8, %rbx
	je	.L859
	addq	$56, %rsp
	.cfi_remember_state
	.cfi_def_cfa_offset 56
	subq	%r8, %rbx
	addq	%rbp, %rdi
	movq	%r8, %rsi
	movq	%rbx, %rdx
	popq	%rbx
	.cfi_def_cfa_offset 48
	popq	%rbp
	.cfi_def_cfa_offset 40
	popq	%r12
	.cfi_def_cfa_offset 32
	popq	%r13
	.cfi_def_cfa_offset 24
	popq	%r14
	.cfi_def_cfa_offset 16
	popq	%r15
	.cfi_def_cfa_offset 8
	jmp	memmove@PLT
	.p2align 4,,10
	.p2align 3
.L862:
	.cfi_restore_state
	movq	%r14, %rsi
	movq	%r13, %r8
	jmp	.L835
	.p2align 4,,10
	.p2align 3
.L859:
	addq	$56, %rsp
	.cfi_remember_state
	.cfi_def_cfa_offset 56
	popq	%rbx
	.cfi_def_cfa_offset 48
	popq	%rbp
	.cfi_def_cfa_offset 40
	popq	%r12
	.cfi_def_cfa_offset 32
	popq	%r13
	.cfi_def_cfa_offset 24
	popq	%r14
	.cfi_def_cfa_offset 16
	popq	%r15
	.cfi_def_cfa_offset 8
	ret
	.p2align 4,,10
	.p2align 3
.L823:
	.cfi_restore_state
	movq	32(%rbx), %rdx
	movq	48(%rbx), %rcx
	leaq	0(,%rax,4), %rsi
	movq	(%rdx), %rdx
	movq	(%rcx), %rdi
	movq	40(%rbx), %rcx
	movl	(%rdx,%rax,4), %edx
	addq	%rsi, %rdi
	addq	(%rcx), %rsi
	movq	%rdi, 16(%rsp)
	cmpl	%edx, %r12d
	movl	%edx, %ecx
	movl	%edx, %r11d
	movq	%rsi, %r9
	cmovle	%r12d, %ecx
	xorl	%esi, %esi
	subl	%r12d, %r11d
	cmovs	%esi, %r11d
	movl	%ecx, %edi
	orl	%r11d, %edi
	je	.L864
	subl	%ebp, %edx
	movq	16(%rsp), %rdi
	movl	%ecx, (%r9)
	cmovs	%esi, %edx
	movl	%r11d, (%rdi)
	subl	%edx, %ecx
	leal	1(%rcx), %esi
	js	.L843
	movl	%r12d, 32(%rsp)
	movl	$51, %edi
	movl	$-1, %r10d
	movl	%r15d, 36(%rsp)
	movq	%rbx, 40(%rsp)
	.p2align 4,,10
	.p2align 3
.L841:
	leal	(%r10,%rsi), %ecx
	movl	%ecx, %edx
	shrl	$31, %edx
	addl	%ecx, %edx
	sarl	%edx
	leal	(%rdx,%r11), %ebx
	movl	%edx, %ecx
	cmpl	%ebx, %ebp
	jle	.L839
	movl	(%r9), %r8d
	subl	%edx, %r8d
	testl	%r8d, %r8d
	jle	.L839
	movslq	%ebx, %rbx
	movslq	%r8d, %r8
	leaq	(%rbx,%rbx,2), %rbx
	leaq	(%r8,%r8,2), %r8
	leaq	-24(%r14,%r8,8), %r8
	leaq	0(%r13,%rbx,8), %rbx
	movq	8(%r8), %r12
	movq	8(%rbx), %r15
	movq	(%r8), %r8
	cmpq	%r8, (%rbx)
	ja	.L839
	jne	.L844
	cmpq	%r12, %r15
	ja	.L839
.L844:
	movl	%edx, %r10d
	movl	%esi, %ecx
	.p2align 4,,10
	.p2align 3
.L839:
	subl	$1, %edi
	je	.L865
	movl	%ecx, %edx
	subl	%r10d, %edx
	cmpl	$1, %edx
	jle	.L866
	movl	%ecx, %esi
	jmp	.L841
	.p2align 4,,10
	.p2align 3
.L866:
	movslq	32(%rsp), %r12
	movl	36(%rsp), %r15d
	movq	40(%rsp), %rbx
.L838:
	movq	16(%rsp), %rdi
	subl	%ecx, (%r9)
	addl	%ecx, (%rdi)
	jmp	.L842
	.p2align 4,,10
	.p2align 3
.L864:
	movq	16(%rsp), %rcx
	movl	$0, (%r9)
	movl	$0, (%rcx)
	jmp	.L842
	.p2align 4,,10
	.p2align 3
.L865:
	leaq	.LC6(%rip), %rcx
	movl	$343, %edx
	leaq	.LC4(%rip), %rsi
	leaq	.LC5(%rip), %rdi
	call	__assert_fail@PLT
	.p2align 4,,10
	.p2align 3
.L843:
	movl	%esi, %ecx
	jmp	.L838
	.cfi_endproc
.LFE15886:
	.size	_ZN17ParticleSimulator16MergeSortOmpImplINS_12TreeParticleEZNS_12TreeForForceINS_24SEARCH_MODE_LONG_SCATTERE7Force_t5EPI_tS5_16MyMomentMonopoleS6_13MySPJMonopoleLNS_18CALC_DISTANCE_TYPEE1EE24mortonSortGlobalTreeOnlyEbEUlRKS1_SB_E_EEvPT_SE_SE_SE_SE_T0_._omp_fn.0, .-_ZN17ParticleSimulator16MergeSortOmpImplINS_12TreeParticleEZNS_12TreeForForceINS_24SEARCH_MODE_LONG_SCATTERE7Force_t5EPI_tS5_16MyMomentMonopoleS6_13MySPJMonopoleLNS_18CALC_DISTANCE_TYPEE1EE24mortonSortGlobalTreeOnlyEbEUlRKS1_SB_E_EEvPT_SE_SE_SE_SE_T0_._omp_fn.0
	.section	.text._ZN17ParticleSimulator16MergeSortOmpImplINS_12TreeParticleEZNS_12TreeForForceINS_24SEARCH_MODE_LONG_SCATTERE7Force_t5EPI_tS5_16MyMomentMonopoleS6_13MySPJMonopoleLNS_18CALC_DISTANCE_TYPEE1EE24mortonSortGlobalTreeOnlyEbEUlRKS1_SB_E0_EEvPT_SE_SE_SE_SE_T0_._omp_fn.0,"axG",@progbits,_ZN17ParticleSimulator12TreeForForceINS_24SEARCH_MODE_LONG_SCATTERE7Force_t5EPI_tS3_16MyMomentMonopoleS4_13MySPJMonopoleLNS_18CALC_DISTANCE_TYPEE1EE24mortonSortGlobalTreeOnlyEb,comdat
	.p2align 4
	.type	_ZN17ParticleSimulator16MergeSortOmpImplINS_12TreeParticleEZNS_12TreeForForceINS_24SEARCH_MODE_LONG_SCATTERE7Force_t5EPI_tS5_16MyMomentMonopoleS6_13MySPJMonopoleLNS_18CALC_DISTANCE_TYPEE1EE24mortonSortGlobalTreeOnlyEbEUlRKS1_SB_E0_EEvPT_SE_SE_SE_SE_T0_._omp_fn.0, @function
_ZN17ParticleSimulator16MergeSortOmpImplINS_12TreeParticleEZNS_12TreeForForceINS_24SEARCH_MODE_LONG_SCATTERE7Force_t5EPI_tS5_16MyMomentMonopoleS6_13MySPJMonopoleLNS_18CALC_DISTANCE_TYPEE1EE24mortonSortGlobalTreeOnlyEbEUlRKS1_SB_E0_EEvPT_SE_SE_SE_SE_T0_._omp_fn.0:
.LFB15887:
	.cfi_startproc
	endbr64
	pushq	%r15
	.cfi_def_cfa_offset 16
	.cfi_offset 15, -16
	pushq	%r14
	.cfi_def_cfa_offset 24
	.cfi_offset 14, -24
	pushq	%r13
	.cfi_def_cfa_offset 32
	.cfi_offset 13, -32
	pushq	%r12
	.cfi_def_cfa_offset 40
	.cfi_offset 12, -40
	pushq	%rbp
	.cfi_def_cfa_offset 48
	.cfi_offset 6, -48
	pushq	%rbx
	.cfi_def_cfa_offset 56
	.cfi_offset 3, -56
	movq	%rdi, %rbx
	subq	$56, %rsp
	.cfi_def_cfa_offset 112
	movq	(%rdi), %rax
	movslq	60(%rdi), %rbp
	movslq	56(%rdi), %r12
	movq	16(%rdi), %r13
	movq	8(%rdi), %r14
	movq	%rax, (%rsp)
	call	omp_get_thread_num@PLT
	movl	%eax, %r15d
	movl	64(%rbx), %eax
	leal	-1(%rax), %ecx
	movslq	%r15d, %rax
	leaq	0(,%rax,4), %rdi
	movl	%ecx, 12(%rsp)
	movq	%rdi, 24(%rsp)
	cmpl	%ecx, %r15d
	jl	.L868
.L887:
	movq	%rax, 16(%rsp)
	call	GOMP_barrier@PLT
	testl	%r15d, %r15d
	movq	16(%rsp), %rax
	je	.L907
	movq	48(%rbx), %rdx
	movq	24(%rsp), %rsi
	movq	(%rdx), %rdx
	movslq	-4(%rdx,%rsi), %rdx
	leaq	(%rdx,%rdx,2), %rdx
	leaq	0(%r13,%rdx,8), %r8
	movq	40(%rbx), %rdx
	movq	(%rdx), %rdx
	movslq	-4(%rdx,%rsi), %rdx
	leaq	(%rdx,%rdx,2), %rdx
	leaq	(%r14,%rdx,8), %rsi
.L880:
	cmpl	12(%rsp), %r15d
	je	.L879
	movq	40(%rbx), %rdx
	movq	(%rdx), %rdx
	movslq	(%rdx,%rax,4), %r12
	movq	48(%rbx), %rdx
	movq	(%rdx), %rdx
	movslq	(%rdx,%rax,4), %rbp
.L879:
	movq	24(%rbx), %rdx
	movq	(%rsp), %rcx
	movq	(%rdx), %rdx
	movslq	(%rdx,%rax,4), %rax
	leaq	(%rax,%rax,2), %rax
	leaq	(%rcx,%rax,8), %rdi
	leaq	0(%rbp,%rbp,2), %rax
	leaq	0(%r13,%rax,8), %rbx
	leaq	(%r12,%r12,2), %rax
	leaq	(%r14,%rax,8), %rax
	cmpq	%rsi, %rax
	jne	.L906
	jmp	.L871
	.p2align 4,,10
	.p2align 3
.L908:
	movq	8(%r8), %r9
	cmpq	%r9, 8(%rsi)
	jbe	.L891
	cmpq	%rdx, %rcx
	je	.L872
.L891:
	vmovdqu	(%rsi), %xmm0
	addq	$24, %rsi
	addq	$24, %rdi
	vmovups	%xmm0, -24(%rdi)
	movl	-8(%rsi), %edx
	movl	%edx, -8(%rdi)
	cmpq	%rsi, %rax
	je	.L871
.L906:
	cmpq	%r8, %rbx
	je	.L871
	movq	(%rsi), %rcx
	movq	(%r8), %rdx
	cmpq	%rdx, %rcx
	jbe	.L908
.L872:
	vmovdqu	(%r8), %xmm1
	addq	$24, %rdi
	addq	$24, %r8
	vmovups	%xmm1, -24(%rdi)
	movl	-8(%r8), %edx
	movl	%edx, -8(%rdi)
	cmpq	%rsi, %rax
	jne	.L906
.L871:
	movq	%rax, %rbp
	subq	%rsi, %rbp
	cmpq	%rsi, %rax
	je	.L877
	movq	%rbp, %rdx
	movq	%r8, (%rsp)
	call	memmove@PLT
	movq	(%rsp), %r8
	movq	%rax, %rdi
.L877:
	cmpq	%r8, %rbx
	je	.L904
	addq	$56, %rsp
	.cfi_remember_state
	.cfi_def_cfa_offset 56
	subq	%r8, %rbx
	addq	%rbp, %rdi
	movq	%r8, %rsi
	movq	%rbx, %rdx
	popq	%rbx
	.cfi_def_cfa_offset 48
	popq	%rbp
	.cfi_def_cfa_offset 40
	popq	%r12
	.cfi_def_cfa_offset 32
	popq	%r13
	.cfi_def_cfa_offset 24
	popq	%r14
	.cfi_def_cfa_offset 16
	popq	%r15
	.cfi_def_cfa_offset 8
	jmp	memmove@PLT
	.p2align 4,,10
	.p2align 3
.L907:
	.cfi_restore_state
	movq	%r14, %rsi
	movq	%r13, %r8
	jmp	.L880
	.p2align 4,,10
	.p2align 3
.L904:
	addq	$56, %rsp
	.cfi_remember_state
	.cfi_def_cfa_offset 56
	popq	%rbx
	.cfi_def_cfa_offset 48
	popq	%rbp
	.cfi_def_cfa_offset 40
	popq	%r12
	.cfi_def_cfa_offset 32
	popq	%r13
	.cfi_def_cfa_offset 24
	popq	%r14
	.cfi_def_cfa_offset 16
	popq	%r15
	.cfi_def_cfa_offset 8
	ret
	.p2align 4,,10
	.p2align 3
.L868:
	.cfi_restore_state
	movq	32(%rbx), %rdx
	movq	48(%rbx), %rcx
	leaq	0(,%rax,4), %rsi
	movq	(%rdx), %rdx
	movq	(%rcx), %rdi
	movq	40(%rbx), %rcx
	movl	(%rdx,%rax,4), %edx
	addq	%rsi, %rdi
	addq	(%rcx), %rsi
	movq	%rdi, 16(%rsp)
	cmpl	%edx, %r12d
	movl	%edx, %ecx
	movl	%edx, %r11d
	movq	%rsi, %r9
	cmovle	%r12d, %ecx
	xorl	%esi, %esi
	subl	%r12d, %r11d
	cmovs	%esi, %r11d
	movl	%ecx, %edi
	orl	%r11d, %edi
	je	.L909
	subl	%ebp, %edx
	movq	16(%rsp), %rdi
	movl	%ecx, (%r9)
	cmovs	%esi, %edx
	movl	%r11d, (%rdi)
	subl	%edx, %ecx
	leal	1(%rcx), %esi
	js	.L888
	movl	%r12d, 32(%rsp)
	movl	$51, %edi
	movl	$-1, %r10d
	movl	%r15d, 36(%rsp)
	movq	%rbx, 40(%rsp)
	.p2align 4,,10
	.p2align 3
.L886:
	leal	(%r10,%rsi), %ecx
	movl	%ecx, %edx
	shrl	$31, %edx
	addl	%ecx, %edx
	sarl	%edx
	leal	(%rdx,%r11), %ebx
	movl	%edx, %ecx
	cmpl	%ebx, %ebp
	jle	.L884
	movl	(%r9), %r8d
	subl	%edx, %r8d
	testl	%r8d, %r8d
	jle	.L884
	movslq	%ebx, %rbx
	movslq	%r8d, %r8
	leaq	(%rbx,%rbx,2), %rbx
	leaq	(%r8,%r8,2), %r8
	leaq	-24(%r14,%r8,8), %r8
	leaq	0(%r13,%rbx,8), %rbx
	movq	8(%r8), %r12
	movq	8(%rbx), %r15
	movq	(%r8), %r8
	cmpq	%r8, (%rbx)
	ja	.L884
	jne	.L889
	cmpq	%r12, %r15
	ja	.L884
.L889:
	movl	%edx, %r10d
	movl	%esi, %ecx
	.p2align 4,,10
	.p2align 3
.L884:
	subl	$1, %edi
	je	.L910
	movl	%ecx, %edx
	subl	%r10d, %edx
	cmpl	$1, %edx
	jle	.L911
	movl	%ecx, %esi
	jmp	.L886
	.p2align 4,,10
	.p2align 3
.L911:
	movslq	32(%rsp), %r12
	movl	36(%rsp), %r15d
	movq	40(%rsp), %rbx
.L883:
	movq	16(%rsp), %rdi
	subl	%ecx, (%r9)
	addl	%ecx, (%rdi)
	jmp	.L887
	.p2align 4,,10
	.p2align 3
.L909:
	movq	16(%rsp), %rcx
	movl	$0, (%r9)
	movl	$0, (%rcx)
	jmp	.L887
	.p2align 4,,10
	.p2align 3
.L910:
	leaq	.LC6(%rip), %rcx
	movl	$343, %edx
	leaq	.LC4(%rip), %rsi
	leaq	.LC5(%rip), %rdi
	call	__assert_fail@PLT
	.p2align 4,,10
	.p2align 3
.L888:
	movl	%esi, %ecx
	jmp	.L883
	.cfi_endproc
.LFE15887:
	.size	_ZN17ParticleSimulator16MergeSortOmpImplINS_12TreeParticleEZNS_12TreeForForceINS_24SEARCH_MODE_LONG_SCATTERE7Force_t5EPI_tS5_16MyMomentMonopoleS6_13MySPJMonopoleLNS_18CALC_DISTANCE_TYPEE1EE24mortonSortGlobalTreeOnlyEbEUlRKS1_SB_E0_EEvPT_SE_SE_SE_SE_T0_._omp_fn.0, .-_ZN17ParticleSimulator16MergeSortOmpImplINS_12TreeParticleEZNS_12TreeForForceINS_24SEARCH_MODE_LONG_SCATTERE7Force_t5EPI_tS5_16MyMomentMonopoleS6_13MySPJMonopoleLNS_18CALC_DISTANCE_TYPEE1EE24mortonSortGlobalTreeOnlyEbEUlRKS1_SB_E0_EEvPT_SE_SE_SE_SE_T0_._omp_fn.0
	.section	.text._ZN17ParticleSimulator17AddMomentAsSpImplINS_8TreeCellI16MyMomentMonopoleNS_8GeometryINS_20TagGeometrySizeInOutEEEEE13MySPJMonopoleEEvNS_12TagForceLongERKNS_18ReallocatableArrayIT_EEiRNS9_IT0_EE._omp_fn.0,"axG",@progbits,_ZN17ParticleSimulator17AddMomentAsSpImplINS_8TreeCellI16MyMomentMonopoleNS_8GeometryINS_20TagGeometrySizeInOutEEEEE13MySPJMonopoleEEvNS_12TagForceLongERKNS_18ReallocatableArrayIT_EEiRNS9_IT0_EE,comdat
	.p2align 4
	.type	_ZN17ParticleSimulator17AddMomentAsSpImplINS_8TreeCellI16MyMomentMonopoleNS_8GeometryINS_20TagGeometrySizeInOutEEEEE13MySPJMonopoleEEvNS_12TagForceLongERKNS_18ReallocatableArrayIT_EEiRNS9_IT0_EE._omp_fn.0, @function
_ZN17ParticleSimulator17AddMomentAsSpImplINS_8TreeCellI16MyMomentMonopoleNS_8GeometryINS_20TagGeometrySizeInOutEEEEE13MySPJMonopoleEEvNS_12TagForceLongERKNS_18ReallocatableArrayIT_EEiRNS9_IT0_EE._omp_fn.0:
.LFB15890:
	.cfi_startproc
	endbr64
	pushq	%r14
	.cfi_def_cfa_offset 16
	.cfi_offset 14, -16
	pushq	%r13
	.cfi_def_cfa_offset 24
	.cfi_offset 13, -24
	pushq	%r12
	.cfi_def_cfa_offset 32
	.cfi_offset 12, -32
	pushq	%rbp
	.cfi_def_cfa_offset 40
	.cfi_offset 6, -40
	pushq	%rbx
	.cfi_def_cfa_offset 48
	.cfi_offset 3, -48
	movq	%rdi, %rbx
	movq	(%rdi), %r12
	call	omp_get_num_threads@PLT
	movl	%eax, %ebp
	call	omp_get_thread_num@PLT
	movl	%eax, %ecx
	movl	8(%r12), %eax
	cltd
	idivl	%ebp
	cmpl	%edx, %ecx
	jl	.L913
.L919:
	imull	%eax, %ecx
	addl	%ecx, %edx
	leal	(%rax,%rdx), %r11d
	cmpl	%r11d, %edx
	jge	.L928
	movq	(%r12), %r9
	movslq	%edx, %r12
	movl	%eax, %ebp
	movslq	16(%rbx), %r13
	leal	-1(%rax), %r8d
	leaq	0(,%r12,8), %rax
	movq	8(%rbx), %rcx
	subq	%r12, %rax
	movq	%r13, %r10
	leaq	0(%rbp,%r12), %r14
	addq	%r12, %r13
	salq	$5, %rax
	movq	(%rcx), %rbx
	movq	%rax, %rdi
	leaq	16(%r9,%rax), %rcx
	leaq	0(%r13,%r13,2), %rax
	leaq	0(%r13,%rax,4), %rax
	leaq	(%rbx,%rax,8), %rsi
	leaq	0(,%r14,8), %rax
	subq	%r14, %rax
	salq	$5, %rax
	leaq	-104(%r9,%rax), %rax
	cmpq	%rax, %rsi
	leaq	0(%rbp,%r13), %rax
	leaq	(%rax,%rax,2), %rbp
	setnb	%r14b
	leaq	(%rax,%rbp,4), %rax
	leaq	(%rbx,%rax,8), %rax
	cmpq	%rax, %rcx
	setnb	%al
	orb	%al, %r14b
	je	.L915
	cmpl	$1, %r8d
	jbe	.L915
	movl	%r8d, %edi
	shrl	%edi
	leaq	0(,%rdi,8), %rax
	subq	%rdi, %rax
	salq	$6, %rax
	addq	%rcx, %rax
	.p2align 4,,10
	.p2align 3
.L916:
	vmovupd	224(%rcx), %xmm4
	vmovupd	96(%rcx), %xmm6
	addq	$448, %rcx
	addq	$208, %rsi
	vmovupd	-208(%rcx), %xmm3
	vmovupd	-192(%rcx), %xmm2
	vmovupd	-176(%rcx), %xmm1
	vmovupd	-160(%rcx), %xmm0
	vunpcklpd	%xmm4, %xmm6, %xmm7
	vmovupd	-144(%rcx), %xmm5
	vmovupd	-432(%rcx), %xmm12
	vshufpd	$1, -128(%rcx), %xmm5, %xmm6
	vshufpd	$1, %xmm3, %xmm4, %xmm4
	vmovupd	-416(%rcx), %xmm11
	vmovupd	-400(%rcx), %xmm10
	vshufpd	$1, %xmm2, %xmm3, %xmm3
	vshufpd	$1, %xmm1, %xmm2, %xmm2
	vmovupd	-384(%rcx), %xmm9
	vmovupd	-368(%rcx), %xmm8
	vshufpd	$1, %xmm0, %xmm1, %xmm1
	vshufpd	$1, %xmm5, %xmm0, %xmm0
	vmovupd	-448(%rcx), %xmm13
	vmovups	%xmm12, -192(%rsi)
	vmovups	%xmm11, -176(%rsi)
	vmovups	%xmm13, -208(%rsi)
	vmovups	%xmm10, -160(%rsi)
	vmovups	%xmm9, -144(%rsi)
	vmovups	%xmm8, -128(%rsi)
	vmovups	%xmm7, -112(%rsi)
	vmovups	%xmm4, -96(%rsi)
	vmovups	%xmm3, -80(%rsi)
	vmovups	%xmm2, -64(%rsi)
	vmovups	%xmm1, -48(%rsi)
	vmovups	%xmm0, -32(%rsi)
	vmovups	%xmm6, -16(%rsi)
	cmpq	%rax, %rcx
	jne	.L916
	andl	$-2, %r8d
	addl	%r8d, %edx
	leal	(%r10,%rdx), %eax
	movslq	%edx, %rsi
	addl	$1, %edx
	cltq
	leaq	(%rax,%rax,2), %rcx
	leaq	(%rax,%rcx,4), %rax
	leaq	(%rbx,%rax,8), %rcx
	leaq	0(,%rsi,8), %rax
	subq	%rsi, %rax
	salq	$5, %rax
	addq	%r9, %rax
	vmovsd	16(%rax), %xmm0
	vmovsd	%xmm0, (%rcx)
	vmovsd	24(%rax), %xmm0
	vmovsd	%xmm0, 8(%rcx)
	vmovsd	32(%rax), %xmm0
	vmovsd	%xmm0, 16(%rcx)
	vmovsd	40(%rax), %xmm0
	vmovsd	%xmm0, 24(%rcx)
	vmovsd	48(%rax), %xmm0
	vmovsd	%xmm0, 32(%rcx)
	vmovsd	56(%rax), %xmm0
	vmovsd	%xmm0, 40(%rcx)
	vmovsd	64(%rax), %xmm0
	vmovsd	%xmm0, 48(%rcx)
	vmovsd	96(%rax), %xmm0
	vmovsd	%xmm0, 80(%rcx)
	vmovsd	104(%rax), %xmm0
	vmovsd	%xmm0, 88(%rcx)
	vmovsd	112(%rax), %xmm0
	vmovsd	%xmm0, 96(%rcx)
	vmovsd	72(%rax), %xmm0
	vmovsd	%xmm0, 56(%rcx)
	vmovsd	80(%rax), %xmm0
	vmovsd	%xmm0, 64(%rcx)
	vmovsd	88(%rax), %xmm0
	vmovsd	%xmm0, 72(%rcx)
	cmpl	%edx, %r11d
	jle	.L928
	addl	%edx, %r10d
	movslq	%edx, %rdx
	movslq	%r10d, %r10
	leaq	(%r10,%r10,2), %rax
	leaq	(%r10,%rax,4), %rax
	leaq	(%rbx,%rax,8), %rcx
	leaq	0(,%rdx,8), %rax
	subq	%rdx, %rax
	salq	$5, %rax
	addq	%r9, %rax
	vmovsd	16(%rax), %xmm0
	vmovsd	%xmm0, (%rcx)
	vmovsd	24(%rax), %xmm0
	vmovsd	%xmm0, 8(%rcx)
	vmovsd	32(%rax), %xmm0
	vmovsd	%xmm0, 16(%rcx)
	vmovsd	40(%rax), %xmm0
	vmovsd	%xmm0, 24(%rcx)
	vmovsd	48(%rax), %xmm0
	vmovsd	%xmm0, 32(%rcx)
	vmovsd	56(%rax), %xmm0
	vmovsd	%xmm0, 40(%rcx)
	vmovsd	64(%rax), %xmm0
	vmovsd	%xmm0, 48(%rcx)
	vmovsd	96(%rax), %xmm0
	vmovsd	%xmm0, 80(%rcx)
	vmovsd	104(%rax), %xmm0
	vmovsd	%xmm0, 88(%rcx)
	vmovsd	112(%rax), %xmm0
	vmovsd	%xmm0, 96(%rcx)
	vmovsd	72(%rax), %xmm0
	vmovsd	%xmm0, 56(%rcx)
	vmovsd	80(%rax), %xmm0
	vmovsd	%xmm0, 64(%rcx)
	vmovsd	88(%rax), %xmm0
	vmovsd	%xmm0, 72(%rcx)
.L928:
	popq	%rbx
	.cfi_remember_state
	.cfi_def_cfa_offset 40
	popq	%rbp
	.cfi_def_cfa_offset 32
	popq	%r12
	.cfi_def_cfa_offset 24
	popq	%r13
	.cfi_def_cfa_offset 16
	popq	%r14
	.cfi_def_cfa_offset 8
	ret
	.p2align 4,,10
	.p2align 3
.L913:
	.cfi_restore_state
	addl	$1, %eax
	xorl	%edx, %edx
	jmp	.L919
	.p2align 4,,10
	.p2align 3
.L915:
	addq	%r8, %r12
	leaq	(%r9,%rdi), %rax
	leaq	0(,%r12,8), %rdx
	subq	%r12, %rdx
	salq	$5, %rdx
	leaq	224(%r9,%rdx), %rdx
	.p2align 4,,10
	.p2align 3
.L918:
	vmovsd	16(%rax), %xmm0
	addq	$224, %rax
	addq	$104, %rsi
	vmovsd	%xmm0, -104(%rsi)
	vmovsd	-200(%rax), %xmm0
	vmovsd	%xmm0, -96(%rsi)
	vmovsd	-192(%rax), %xmm0
	vmovsd	%xmm0, -88(%rsi)
	vmovsd	-184(%rax), %xmm0
	vmovsd	%xmm0, -80(%rsi)
	vmovsd	-176(%rax), %xmm0
	vmovsd	%xmm0, -72(%rsi)
	vmovsd	-168(%rax), %xmm0
	vmovsd	%xmm0, -64(%rsi)
	vmovsd	-160(%rax), %xmm0
	vmovsd	%xmm0, -56(%rsi)
	vmovsd	-128(%rax), %xmm0
	vmovsd	%xmm0, -24(%rsi)
	vmovsd	-120(%rax), %xmm0
	vmovsd	%xmm0, -16(%rsi)
	vmovsd	-112(%rax), %xmm0
	vmovsd	%xmm0, -8(%rsi)
	vmovsd	-152(%rax), %xmm0
	vmovsd	%xmm0, -48(%rsi)
	vmovsd	-144(%rax), %xmm0
	vmovsd	%xmm0, -40(%rsi)
	vmovsd	-136(%rax), %xmm0
	vmovsd	%xmm0, -32(%rsi)
	cmpq	%rdx, %rax
	jne	.L918
	jmp	.L928
	.cfi_endproc
.LFE15890:
	.size	_ZN17ParticleSimulator17AddMomentAsSpImplINS_8TreeCellI16MyMomentMonopoleNS_8GeometryINS_20TagGeometrySizeInOutEEEEE13MySPJMonopoleEEvNS_12TagForceLongERKNS_18ReallocatableArrayIT_EEiRNS9_IT0_EE._omp_fn.0, .-_ZN17ParticleSimulator17AddMomentAsSpImplINS_8TreeCellI16MyMomentMonopoleNS_8GeometryINS_20TagGeometrySizeInOutEEEEE13MySPJMonopoleEEvNS_12TagForceLongERKNS_18ReallocatableArrayIT_EEiRNS9_IT0_EE._omp_fn.0
	.section	.text._ZN17ParticleSimulator12TreeForForceINS_24SEARCH_MODE_LONG_SCATTERE7Force_t5EPI_tS3_16MyMomentMonopoleS4_13MySPJMonopoleLNS_18CALC_DISTANCE_TYPEE1EE15calcForceNoWalkI11CalcForceEpIS3_S3_S2_E15CalcForceSpMonoIS3_S5_S2_EEEvT_T0_b._omp_fn.0,"axG",@progbits,_ZN17ParticleSimulator12TreeForForceINS_24SEARCH_MODE_LONG_SCATTERE7Force_t5EPI_tS3_16MyMomentMonopoleS4_13MySPJMonopoleLNS_18CALC_DISTANCE_TYPEE1EE15calcForceNoWalkI11CalcForceEpIS3_S3_S2_E15CalcForceSpMonoIS3_S5_S2_EEEvT_T0_b,comdat
	.p2align 4
	.type	_ZN17ParticleSimulator12TreeForForceINS_24SEARCH_MODE_LONG_SCATTERE7Force_t5EPI_tS3_16MyMomentMonopoleS4_13MySPJMonopoleLNS_18CALC_DISTANCE_TYPEE1EE15calcForceNoWalkI11CalcForceEpIS3_S3_S2_E15CalcForceSpMonoIS3_S5_S2_EEEvT_T0_b._omp_fn.0, @function
_ZN17ParticleSimulator12TreeForForceINS_24SEARCH_MODE_LONG_SCATTERE7Force_t5EPI_tS3_16MyMomentMonopoleS4_13MySPJMonopoleLNS_18CALC_DISTANCE_TYPEE1EE15calcForceNoWalkI11CalcForceEpIS3_S3_S2_E15CalcForceSpMonoIS3_S5_S2_EEEvT_T0_b._omp_fn.0:
.LFB15891:
	.cfi_startproc
	endbr64
	pushq	%rbp
	.cfi_def_cfa_offset 16
	.cfi_offset 6, -16
	movq	%rsp, %rbp
	.cfi_def_cfa_register 6
	pushq	%r12
	pushq	%rbx
	.cfi_offset 12, -24
	.cfi_offset 3, -32
	movq	(%rdi), %r12
	call	omp_get_num_threads@PLT
	movl	%eax, %ebx
	call	omp_get_thread_num@PLT
	movl	%eax, %ecx
	movl	816(%r12), %eax
	cltd
	idivl	%ebx
	cmpl	%edx, %ecx
	jl	.L931
.L936:
	imull	%eax, %ecx
	addl	%ecx, %edx
	leal	(%rax,%rdx), %r8d
	cmpl	%r8d, %edx
	jge	.L942
	leal	-1(%rax), %ecx
	movq	1336(%r12), %rdi
	cmpl	$3, %ecx
	jbe	.L933
	movslq	%edx, %rsi
	movl	%eax, %r9d
	vxorpd	%xmm0, %xmm0, %xmm0
	leaq	0(,%rsi,8), %rcx
	shrl	$2, %r9d
	subq	%rsi, %rcx
	leaq	0(,%r9,8), %rsi
	subq	%r9, %rsi
	leaq	(%rdi,%rcx,8), %rcx
	salq	$5, %rsi
	addq	%rcx, %rsi
	.p2align 4,,10
	.p2align 3
.L934:
	vmovups	%xmm0, (%rcx)
	vextractf128	$0x1, %ymm0, 16(%rcx)
	vextractf128	$0x1, %ymm0, 32(%rcx)
	vextractf128	$0x1, %ymm0, 48(%rcx)
	vextractf128	$0x1, %ymm0, 64(%rcx)
	vextractf128	$0x1, %ymm0, 80(%rcx)
	vextractf128	$0x1, %ymm0, 96(%rcx)
	vextractf128	$0x1, %ymm0, 112(%rcx)
	vextractf128	$0x1, %ymm0, 128(%rcx)
	vextractf128	$0x1, %ymm0, 144(%rcx)
	vextractf128	$0x1, %ymm0, 160(%rcx)
	vextractf128	$0x1, %ymm0, 176(%rcx)
	vextractf128	$0x1, %ymm0, 192(%rcx)
	addq	$224, %rcx
	vextractf128	$0x1, %ymm0, -16(%rcx)
	cmpq	%rcx, %rsi
	jne	.L934
	movl	%eax, %ecx
	andl	$-4, %ecx
	addl	%ecx, %edx
	cmpl	%ecx, %eax
	je	.L941
.L933:
	movslq	%edx, %rcx
	vxorpd	%xmm0, %xmm0, %xmm0
	leaq	0(,%rcx,8), %rax
	subq	%rcx, %rax
	salq	$3, %rax
	leaq	(%rdi,%rax), %rcx
	vmovups	%xmm0, (%rdi,%rax)
	vextractf128	$0x1, %ymm0, 16(%rdi,%rax)
	movq	$0x000000000, 48(%rcx)
	movq	$0x000000000, 40(%rcx)
	movq	$0x000000000, 32(%rcx)
	leal	1(%rdx), %ecx
	cmpl	%ecx, %r8d
	jle	.L941
	leaq	56(%rdi,%rax), %rcx
	vextractf128	$0x1, %ymm0, 56(%rdi,%rax)
	vextractf128	$0x1, %ymm0, 72(%rdi,%rax)
	movq	$0x000000000, 48(%rcx)
	movq	$0x000000000, 40(%rcx)
	movq	$0x000000000, 32(%rcx)
	leal	2(%rdx), %ecx
	cmpl	%ecx, %r8d
	jle	.L941
	leaq	112(%rdi,%rax), %rcx
	addl	$3, %edx
	vextractf128	$0x1, %ymm0, 112(%rdi,%rax)
	vextractf128	$0x1, %ymm0, 128(%rdi,%rax)
	movq	$0x000000000, 48(%rcx)
	movq	$0x000000000, 40(%rcx)
	movq	$0x000000000, 32(%rcx)
	cmpl	%edx, %r8d
	jle	.L941
	leaq	168(%rdi,%rax), %rdx
	vextractf128	$0x1, %ymm0, 168(%rdi,%rax)
	vextractf128	$0x1, %ymm0, 184(%rdi,%rax)
	movq	$0x000000000, 48(%rdx)
	movq	$0x000000000, 40(%rdx)
	movq	$0x000000000, 32(%rdx)
	vzeroupper
.L942:
	popq	%rbx
	popq	%r12
	popq	%rbp
	.cfi_remember_state
	.cfi_def_cfa 7, 8
	ret
	.p2align 4,,10
	.p2align 3
.L931:
	.cfi_restore_state
	addl	$1, %eax
	xorl	%edx, %edx
	jmp	.L936
	.p2align 4,,10
	.p2align 3
.L941:
	vzeroupper
	popq	%rbx
	popq	%r12
	popq	%rbp
	.cfi_def_cfa 7, 8
	ret
	.cfi_endproc
.LFE15891:
	.size	_ZN17ParticleSimulator12TreeForForceINS_24SEARCH_MODE_LONG_SCATTERE7Force_t5EPI_tS3_16MyMomentMonopoleS4_13MySPJMonopoleLNS_18CALC_DISTANCE_TYPEE1EE15calcForceNoWalkI11CalcForceEpIS3_S3_S2_E15CalcForceSpMonoIS3_S5_S2_EEEvT_T0_b._omp_fn.0, .-_ZN17ParticleSimulator12TreeForForceINS_24SEARCH_MODE_LONG_SCATTERE7Force_t5EPI_tS3_16MyMomentMonopoleS4_13MySPJMonopoleLNS_18CALC_DISTANCE_TYPEE1EE15calcForceNoWalkI11CalcForceEpIS3_S3_S2_E15CalcForceSpMonoIS3_S5_S2_EEEvT_T0_b._omp_fn.0
	.text
	.p2align 4
	.type	_ZN17ParticleSimulator12TreeForForceINS_24SEARCH_MODE_LONG_SCATTERE7Force_t5EPI_tS3_16MyMomentMonopoleS4_13MySPJMonopoleLNS_18CALC_DISTANCE_TYPEE1EE9writeBackINS_14ParticleSystemI4FP_tEEEEvRT_._omp_fn.0, @function
_ZN17ParticleSimulator12TreeForForceINS_24SEARCH_MODE_LONG_SCATTERE7Force_t5EPI_tS3_16MyMomentMonopoleS4_13MySPJMonopoleLNS_18CALC_DISTANCE_TYPEE1EE9writeBackINS_14ParticleSystemI4FP_tEEEEvRT_._omp_fn.0:
.LFB15893:
	.cfi_startproc
	endbr64
	pushq	%rbp
	.cfi_def_cfa_offset 16
	.cfi_offset 6, -16
	movq	%rsp, %rbp
	.cfi_def_cfa_register 6
	pushq	%r13
	pushq	%r12
	.cfi_offset 13, -24
	.cfi_offset 12, -32
	movq	%rdi, %r12
	pushq	%rbx
	movq	(%rdi), %r13
	andq	$-32, %rsp
	.cfi_offset 3, -40
	call	omp_get_num_threads@PLT
	movl	%eax, %ebx
	call	omp_get_thread_num@PLT
	movl	%eax, %ecx
	movl	816(%r13), %eax
	cltd
	idivl	%ebx
	cmpl	%edx, %ecx
	jl	.L945
.L948:
	imull	%eax, %ecx
	addl	%ecx, %edx
	leal	(%rax,%rdx), %ecx
	cmpl	%ecx, %edx
	jge	.L950
	movslq	%edx, %rdx
	subl	$1, %eax
	movq	8(%r12), %r8
	movq	1080(%r13), %rdi
	imulq	$184, %rdx, %rsi
	leaq	0(,%rdx,8), %rcx
	subq	%rdx, %rcx
	addq	%rax, %rdx
	movq	456(%r8), %r8
	leaq	0(,%rdx,8), %rax
	leaq	(%rdi,%rcx,8), %rcx
	subq	%rdx, %rax
	leaq	112(%r8,%rsi), %rsi
	leaq	56(%rdi,%rax,8), %rax
	.p2align 4,,10
	.p2align 3
.L947:
	vmovupd	(%rcx), %xmm1
	vinsertf128	$0x1, 16(%rcx), %ymm1, %ymm0
	addq	$56, %rcx
	addq	$184, %rsi
